(dp1
S'001026'
p2
(lp3
(dp4
S'difficult'
p5
I0
sS'pose'
p6
S'Unspecified'
p7
sS'name'
p8
S'hat'
p9
sS'bbox'
p10
(lp11
I46
aI53
aI69
aI81
asS'truncated'
p12
I0
sa(dp13
g5
I0
sg6
S'Unspecified'
p14
sg8
S'hat'
p15
sg10
(lp16
I163
aI136
aI183
aI159
asg12
I0
sa(dp17
g5
I0
sg6
S'Unspecified'
p18
sg8
S'hat'
p19
sg10
(lp20
I179
aI128
aI198
aI152
asg12
I0
sa(dp21
g5
I0
sg6
S'Unspecified'
p22
sg8
S'hat'
p23
sg10
(lp24
I207
aI123
aI229
aI152
asg12
I0
sa(dp25
g5
I0
sg6
S'Unspecified'
p26
sg8
S'hat'
p27
sg10
(lp28
I262
aI123
aI278
aI142
asg12
I0
sa(dp29
g5
I0
sg6
S'Unspecified'
p30
sg8
S'hat'
p31
sg10
(lp32
I207
aI43
aI218
aI57
asg12
I0
sa(dp33
g5
I0
sg6
S'Unspecified'
p34
sg8
S'person'
p35
sg10
(lp36
I96
aI51
aI110
aI68
asg12
I0
sasS'part2_001390'
p37
(lp38
(dp39
g5
I0
sg6
S'Unspecified'
p40
sg8
S'hat'
p41
sg10
(lp42
I107
aI97
aI249
aI251
asg12
I0
sa(dp43
g5
I0
sg6
S'Unspecified'
p44
sg8
S'hat'
p45
sg10
(lp46
I237
aI85
aI334
aI208
asg12
I0
sa(dp47
g5
I0
sg6
S'Unspecified'
p48
sg8
S'hat'
p49
sg10
(lp50
I415
aI60
aI513
aI192
asg12
I0
sasS'PartB_00657'
p51
(lp52
(dp53
g5
I0
sg6
S'Unspecified'
p54
sg8
S'person'
p55
sg10
(lp56
I1
aI49
aI57
aI121
asg12
I1
sa(dp57
g5
I0
sg6
S'Unspecified'
p58
sg8
S'person'
p59
sg10
(lp60
I33
aI1
aI75
aI33
asg12
I1
sa(dp61
g5
I0
sg6
S'Unspecified'
p62
sg8
S'person'
p63
sg10
(lp64
I166
aI58
aI225
aI118
asg12
I0
sa(dp65
g5
I0
sg6
S'Unspecified'
p66
sg8
S'person'
p67
sg10
(lp68
I179
aI107
aI291
aI226
asg12
I0
sa(dp69
g5
I0
sg6
S'Unspecified'
p70
sg8
S'person'
p71
sg10
(lp72
I274
aI63
aI333
aI122
asg12
I0
sa(dp73
g5
I0
sg6
S'Unspecified'
p74
sg8
S'person'
p75
sg10
(lp76
I211
aI41
aI246
aI80
asg12
I0
sa(dp77
g5
I0
sg6
S'Unspecified'
p78
sg8
S'person'
p79
sg10
(lp80
I187
aI19
aI218
aI49
asg12
I0
sa(dp81
g5
I0
sg6
S'Unspecified'
p82
sg8
S'person'
p83
sg10
(lp84
I249
aI44
aI273
aI74
asg12
I0
sa(dp85
g5
I0
sg6
S'Unspecified'
p86
sg8
S'person'
p87
sg10
(lp88
I310
aI49
aI342
aI92
asg12
I0
sa(dp89
g5
I0
sg6
S'Unspecified'
p90
sg8
S'person'
p91
sg10
(lp92
I429
aI79
aI473
aI130
asg12
I0
sa(dp93
g5
I0
sg6
S'Unspecified'
p94
sg8
S'person'
p95
sg10
(lp96
I489
aI103
aI578
aI202
asg12
I0
sa(dp97
g5
I0
sg6
S'Unspecified'
p98
sg8
S'person'
p99
sg10
(lp100
I511
aI65
aI541
aI94
asg12
I0
sa(dp101
g5
I0
sg6
S'Unspecified'
p102
sg8
S'person'
p103
sg10
(lp104
I498
aI36
aI529
aI68
asg12
I0
sa(dp105
g5
I0
sg6
S'Unspecified'
p106
sg8
S'person'
p107
sg10
(lp108
I485
aI26
aI502
aI46
asg12
I0
sa(dp109
g5
I0
sg6
S'Unspecified'
p110
sg8
S'person'
p111
sg10
(lp112
I491
aI5
aI508
aI26
asg12
I0
sa(dp113
g5
I0
sg6
S'Unspecified'
p114
sg8
S'person'
p115
sg10
(lp116
I530
aI2
aI545
aI21
asg12
I0
sa(dp117
g5
I0
sg6
S'Unspecified'
p118
sg8
S'person'
p119
sg10
(lp120
I557
aI46
aI580
aI73
asg12
I0
sa(dp121
g5
I0
sg6
S'Unspecified'
p122
sg8
S'person'
p123
sg10
(lp124
I570
aI109
aI600
aI171
asg12
I1
sasS'part2_000309'
p125
(lp126
(dp127
g5
I0
sg6
S'Unspecified'
p128
sg8
S'hat'
p129
sg10
(lp130
I187
aI50
aI356
aI291
asg12
I0
sasS'part2_001730'
p131
(lp132
(dp133
g5
I0
sg6
S'Unspecified'
p134
sg8
S'hat'
p135
sg10
(lp136
I243
aI2
aI382
aI184
asg12
I0
sasS'PartA_01291'
p137
(lp138
(dp139
g5
I0
sg6
S'Unspecified'
p140
sg8
S'person'
p141
sg10
(lp142
I86
aI354
aI128
aI402
asg12
I0
sa(dp143
g5
I0
sg6
S'Unspecified'
p144
sg8
S'person'
p145
sg10
(lp146
I202
aI219
aI221
aI240
asg12
I0
sa(dp147
g5
I0
sg6
S'Unspecified'
p148
sg8
S'person'
p149
sg10
(lp150
I236
aI235
aI259
aI259
asg12
I0
sa(dp151
g5
I0
sg6
S'Unspecified'
p152
sg8
S'person'
p153
sg10
(lp154
I283
aI236
aI301
aI260
asg12
I0
sa(dp155
g5
I0
sg6
S'Unspecified'
p156
sg8
S'person'
p157
sg10
(lp158
I309
aI255
aI334
aI283
asg12
I0
sa(dp159
g5
I0
sg6
S'Unspecified'
p160
sg8
S'person'
p161
sg10
(lp162
I271
aI201
aI288
aI220
asg12
I0
sa(dp163
g5
I0
sg6
S'Unspecified'
p164
sg8
S'person'
p165
sg10
(lp166
I346
aI221
aI366
aI245
asg12
I0
sa(dp167
g5
I0
sg6
S'Unspecified'
p168
sg8
S'person'
p169
sg10
(lp170
I354
aI192
aI372
aI214
asg12
I0
sa(dp171
g5
I0
sg6
S'Unspecified'
p172
sg8
S'person'
p173
sg10
(lp174
I389
aI221
aI405
aI242
asg12
I0
sa(dp175
g5
I0
sg6
S'Unspecified'
p176
sg8
S'person'
p177
sg10
(lp178
I418
aI215
aI437
aI240
asg12
I0
sa(dp179
g5
I0
sg6
S'Unspecified'
p180
sg8
S'person'
p181
sg10
(lp182
I399
aI170
aI417
aI192
asg12
I0
sa(dp183
g5
I0
sg6
S'Unspecified'
p184
sg8
S'person'
p185
sg10
(lp186
I418
aI198
aI436
aI215
asg12
I0
sa(dp187
g5
I0
sg6
S'Unspecified'
p188
sg8
S'person'
p189
sg10
(lp190
I417
aI180
aI429
aI196
asg12
I0
sa(dp191
g5
I0
sg6
S'Unspecified'
p192
sg8
S'person'
p193
sg10
(lp194
I492
aI205
aI513
aI231
asg12
I0
sa(dp195
g5
I0
sg6
S'Unspecified'
p196
sg8
S'person'
p197
sg10
(lp198
I452
aI201
aI475
aI223
asg12
I0
sa(dp199
g5
I0
sg6
S'Unspecified'
p200
sg8
S'person'
p201
sg10
(lp202
I466
aI167
aI482
aI186
asg12
I0
sa(dp203
g5
I0
sg6
S'Unspecified'
p204
sg8
S'person'
p205
sg10
(lp206
I447
aI164
aI462
aI181
asg12
I0
sa(dp207
g5
I0
sg6
S'Unspecified'
p208
sg8
S'person'
p209
sg10
(lp210
I484
aI176
aI503
aI196
asg12
I0
sa(dp211
g5
I0
sg6
S'Unspecified'
p212
sg8
S'person'
p213
sg10
(lp214
I487
aI158
aI503
aI175
asg12
I0
sa(dp215
g5
I0
sg6
S'Unspecified'
p216
sg8
S'person'
p217
sg10
(lp218
I498
aI150
aI511
aI164
asg12
I0
sa(dp219
g5
I0
sg6
S'Unspecified'
p220
sg8
S'person'
p221
sg10
(lp222
I541
aI171
aI555
aI193
asg12
I0
sa(dp223
g5
I0
sg6
S'Unspecified'
p224
sg8
S'person'
p225
sg10
(lp226
I558
aI174
aI574
aI196
asg12
I0
sa(dp227
g5
I0
sg6
S'Unspecified'
p228
sg8
S'person'
p229
sg10
(lp230
I537
aI210
aI554
aI232
asg12
I0
sa(dp231
g5
I0
sg6
S'Unspecified'
p232
sg8
S'person'
p233
sg10
(lp234
I467
aI226
aI493
aI249
asg12
I0
sa(dp235
g5
I0
sg6
S'Unspecified'
p236
sg8
S'person'
p237
sg10
(lp238
I490
aI257
aI522
aI301
asg12
I0
sa(dp239
g5
I0
sg6
S'Unspecified'
p240
sg8
S'person'
p241
sg10
(lp242
I554
aI157
aI570
aI174
asg12
I0
sa(dp243
g5
I0
sg6
S'Unspecified'
p244
sg8
S'person'
p245
sg10
(lp246
I600
aI176
aI618
aI200
asg12
I0
sa(dp247
g5
I0
sg6
S'Unspecified'
p248
sg8
S'person'
p249
sg10
(lp250
I594
aI155
aI610
aI174
asg12
I0
sa(dp251
g5
I0
sg6
S'Unspecified'
p252
sg8
S'person'
p253
sg10
(lp254
I622
aI158
aI638
aI180
asg12
I0
sa(dp255
g5
I0
sg6
S'Unspecified'
p256
sg8
S'person'
p257
sg10
(lp258
I617
aI137
aI629
aI154
asg12
I0
sa(dp259
g5
I0
sg6
S'Unspecified'
p260
sg8
S'person'
p261
sg10
(lp262
I630
aI134
aI642
aI150
asg12
I0
sa(dp263
g5
I0
sg6
S'Unspecified'
p264
sg8
S'person'
p265
sg10
(lp266
I656
aI157
aI671
aI177
asg12
I0
sa(dp267
g5
I0
sg6
S'Unspecified'
p268
sg8
S'person'
p269
sg10
(lp270
I708
aI157
aI723
aI175
asg12
I0
sa(dp271
g5
I0
sg6
S'Unspecified'
p272
sg8
S'person'
p273
sg10
(lp274
I704
aI140
aI718
aI155
asg12
I0
sa(dp275
g5
I0
sg6
S'Unspecified'
p276
sg8
S'person'
p277
sg10
(lp278
I677
aI126
aI689
aI142
asg12
I0
sa(dp279
g5
I0
sg6
S'Unspecified'
p280
sg8
S'person'
p281
sg10
(lp282
I739
aI132
aI751
aI149
asg12
I0
sa(dp283
g5
I0
sg6
S'Unspecified'
p284
sg8
S'person'
p285
sg10
(lp286
I750
aI144
aI761
aI161
asg12
I0
sa(dp287
g5
I0
sg6
S'Unspecified'
p288
sg8
S'person'
p289
sg10
(lp290
I754
aI133
aI771
aI153
asg12
I0
sa(dp291
g5
I0
sg6
S'Unspecified'
p292
sg8
S'person'
p293
sg10
(lp294
I739
aI177
aI758
aI198
asg12
I0
sa(dp295
g5
I0
sg6
S'Unspecified'
p296
sg8
S'person'
p297
sg10
(lp298
I782
aI165
aI801
aI185
asg12
I0
sa(dp299
g5
I0
sg6
S'Unspecified'
p300
sg8
S'person'
p301
sg10
(lp302
I649
aI215
aI674
aI243
asg12
I0
sa(dp303
g5
I0
sg6
S'Unspecified'
p304
sg8
S'person'
p305
sg10
(lp306
I575
aI266
aI606
aI296
asg12
I0
sa(dp307
g5
I0
sg6
S'Unspecified'
p308
sg8
S'person'
p309
sg10
(lp310
I568
aI245
aI598
aI273
asg12
I0
sa(dp311
g5
I0
sg6
S'Unspecified'
p312
sg8
S'person'
p313
sg10
(lp314
I635
aI264
aI663
aI290
asg12
I0
sa(dp315
g5
I0
sg6
S'Unspecified'
p316
sg8
S'person'
p317
sg10
(lp318
I623
aI299
aI658
aI339
asg12
I0
sa(dp319
g5
I0
sg6
S'Unspecified'
p320
sg8
S'person'
p321
sg10
(lp322
I688
aI299
aI730
aI344
asg12
I0
sa(dp323
g5
I0
sg6
S'Unspecified'
p324
sg8
S'person'
p325
sg10
(lp326
I731
aI245
aI755
aI274
asg12
I0
sa(dp327
g5
I0
sg6
S'Unspecified'
p328
sg8
S'person'
p329
sg10
(lp330
I704
aI228
aI727
aI255
asg12
I0
sa(dp331
g5
I0
sg6
S'Unspecified'
p332
sg8
S'person'
p333
sg10
(lp334
I694
aI199
aI714
aI217
asg12
I0
sa(dp335
g5
I0
sg6
S'Unspecified'
p336
sg8
S'person'
p337
sg10
(lp338
I758
aI205
aI777
aI229
asg12
I0
sa(dp339
g5
I0
sg6
S'Unspecified'
p340
sg8
S'person'
p341
sg10
(lp342
I792
aI191
aI809
aI217
asg12
I0
sa(dp343
g5
I0
sg6
S'Unspecified'
p344
sg8
S'person'
p345
sg10
(lp346
I832
aI159
aI846
aI179
asg12
I0
sa(dp347
g5
I0
sg6
S'Unspecified'
p348
sg8
S'person'
p349
sg10
(lp350
I846
aI137
aI859
aI158
asg12
I0
sa(dp351
g5
I0
sg6
S'Unspecified'
p352
sg8
S'person'
p353
sg10
(lp354
I764
aI351
aI804
aI398
asg12
I0
sa(dp355
g5
I0
sg6
S'Unspecified'
p356
sg8
S'person'
p357
sg10
(lp358
I794
aI264
aI825
aI295
asg12
I0
sa(dp359
g5
I0
sg6
S'Unspecified'
p360
sg8
S'person'
p361
sg10
(lp362
I760
aI237
aI786
aI264
asg12
I0
sa(dp363
g5
I0
sg6
S'Unspecified'
p364
sg8
S'person'
p365
sg10
(lp366
I910
aI232
aI934
aI263
asg12
I0
sa(dp367
g5
I0
sg6
S'Unspecified'
p368
sg8
S'person'
p369
sg10
(lp370
I865
aI278
aI891
aI317
asg12
I0
sa(dp371
g5
I0
sg6
S'Unspecified'
p372
sg8
S'person'
p373
sg10
(lp374
I917
aI325
aI953
aI367
asg12
I0
sa(dp375
g5
I0
sg6
S'Unspecified'
p376
sg8
S'person'
p377
sg10
(lp378
I951
aI297
aI982
aI336
asg12
I0
sa(dp379
g5
I0
sg6
S'Unspecified'
p380
sg8
S'person'
p381
sg10
(lp382
I1031
aI311
aI1062
aI354
asg12
I0
sa(dp383
g5
I0
sg6
S'Unspecified'
p384
sg8
S'person'
p385
sg10
(lp386
I964
aI241
aI991
aI273
asg12
I0
sa(dp387
g5
I0
sg6
S'Unspecified'
p388
sg8
S'person'
p389
sg10
(lp390
I985
aI216
aI1003
aI241
asg12
I0
sa(dp391
g5
I0
sg6
S'Unspecified'
p392
sg8
S'person'
p393
sg10
(lp394
I1018
aI209
aI1037
aI235
asg12
I0
sa(dp395
g5
I0
sg6
S'Unspecified'
p396
sg8
S'person'
p397
sg10
(lp398
I1049
aI232
aI1067
aI261
asg12
I0
sa(dp399
g5
I0
sg6
S'Unspecified'
p400
sg8
S'person'
p401
sg10
(lp402
I1060
aI208
aI1076
aI232
asg12
I0
sa(dp403
g5
I0
sg6
S'Unspecified'
p404
sg8
S'person'
p405
sg10
(lp406
I1075
aI204
aI1093
aI225
asg12
I0
sa(dp407
g5
I0
sg6
S'Unspecified'
p408
sg8
S'person'
p409
sg10
(lp410
I1067
aI183
aI1084
aI203
asg12
I0
sa(dp411
g5
I0
sg6
S'Unspecified'
p412
sg8
S'person'
p413
sg10
(lp414
I1013
aI177
aI1032
aI197
asg12
I0
sa(dp415
g5
I0
sg6
S'Unspecified'
p416
sg8
S'person'
p417
sg10
(lp418
I994
aI165
aI1012
aI186
asg12
I0
sa(dp419
g5
I0
sg6
S'Unspecified'
p420
sg8
S'person'
p421
sg10
(lp422
I956
aI180
aI973
aI198
asg12
I0
sa(dp423
g5
I0
sg6
S'Unspecified'
p424
sg8
S'person'
p425
sg10
(lp426
I968
aI166
aI986
aI187
asg12
I0
sa(dp427
g5
I0
sg6
S'Unspecified'
p428
sg8
S'person'
p429
sg10
(lp430
I948
aI160
aI970
aI181
asg12
I0
sa(dp431
g5
I0
sg6
S'Unspecified'
p432
sg8
S'person'
p433
sg10
(lp434
I925
aI172
aI942
aI196
asg12
I0
sa(dp435
g5
I0
sg6
S'Unspecified'
p436
sg8
S'person'
p437
sg10
(lp438
I905
aI188
aI924
aI207
asg12
I0
sa(dp439
g5
I0
sg6
S'Unspecified'
p440
sg8
S'person'
p441
sg10
(lp442
I958
aI209
aI978
aI234
asg12
I0
sa(dp443
g5
I0
sg6
S'Unspecified'
p444
sg8
S'person'
p445
sg10
(lp446
I928
aI220
aI948
aI248
asg12
I0
sa(dp447
g5
I0
sg6
S'Unspecified'
p448
sg8
S'person'
p449
sg10
(lp450
I862
aI184
aI883
aI207
asg12
I0
sa(dp451
g5
I0
sg6
S'Unspecified'
p452
sg8
S'person'
p453
sg10
(lp454
I855
aI165
aI871
aI182
asg12
I0
sa(dp455
g5
I0
sg6
S'Unspecified'
p456
sg8
S'person'
p457
sg10
(lp458
I874
aI170
aI893
aI194
asg12
I0
sa(dp459
g5
I0
sg6
S'Unspecified'
p460
sg8
S'person'
p461
sg10
(lp462
I875
aI150
aI892
aI173
asg12
I0
sa(dp463
g5
I0
sg6
S'Unspecified'
p464
sg8
S'person'
p465
sg10
(lp466
I910
aI153
aI929
aI172
asg12
I0
sasS'PartA_00568'
p467
(lp468
(dp469
g5
I0
sg6
S'Unspecified'
p470
sg8
S'person'
p471
sg10
(lp472
I328
aI96
aI352
aI119
asg12
I0
sa(dp473
g5
I0
sg6
S'Unspecified'
p474
sg8
S'person'
p475
sg10
(lp476
I430
aI100
aI461
aI123
asg12
I0
sa(dp477
g5
I0
sg6
S'Unspecified'
p478
sg8
S'person'
p479
sg10
(lp480
I505
aI71
aI523
aI87
asg12
I0
sa(dp481
g5
I0
sg6
S'Unspecified'
p482
sg8
S'person'
p483
sg10
(lp484
I504
aI109
aI522
aI130
asg12
I0
sa(dp485
g5
I0
sg6
S'Unspecified'
p486
sg8
S'person'
p487
sg10
(lp488
I569
aI59
aI587
aI74
asg12
I0
sa(dp489
g5
I0
sg6
S'Unspecified'
p490
sg8
S'person'
p491
sg10
(lp492
I650
aI53
aI663
aI73
asg12
I0
sa(dp493
g5
I0
sg6
S'Unspecified'
p494
sg8
S'person'
p495
sg10
(lp496
I645
aI118
aI668
aI148
asg12
I0
sasS'001579'
p497
(lp498
(dp499
g5
I0
sg6
S'Unspecified'
p500
sg8
S'hat'
p501
sg10
(lp502
I264
aI49
aI790
aI805
asg12
I0
sasS'part2_001021'
p503
(lp504
(dp505
g5
I0
sg6
S'Unspecified'
p506
sg8
S'hat'
p507
sg10
(lp508
I238
aI1
aI694
aI454
asg12
I1
sasS'PartB_01082'
p509
(lp510
(dp511
g5
I0
sg6
S'Unspecified'
p512
sg8
S'person'
p513
sg10
(lp514
I477
aI192
aI492
aI209
asg12
I0
sa(dp515
g5
I0
sg6
S'Unspecified'
p516
sg8
S'person'
p517
sg10
(lp518
I403
aI236
aI412
aI248
asg12
I0
sa(dp519
g5
I0
sg6
S'Unspecified'
p520
sg8
S'person'
p521
sg10
(lp522
I388
aI240
aI396
aI250
asg12
I0
sa(dp523
g5
I0
sg6
S'Unspecified'
p524
sg8
S'person'
p525
sg10
(lp526
I378
aI242
aI386
aI251
asg12
I0
sa(dp527
g5
I0
sg6
S'Unspecified'
p528
sg8
S'person'
p529
sg10
(lp530
I371
aI243
aI379
aI252
asg12
I0
sa(dp531
g5
I0
sg6
S'Unspecified'
p532
sg8
S'person'
p533
sg10
(lp534
I364
aI236
aI371
aI245
asg12
I0
sa(dp535
g5
I0
sg6
S'Unspecified'
p536
sg8
S'person'
p537
sg10
(lp538
I360
aI242
aI368
aI251
asg12
I0
sa(dp539
g5
I0
sg6
S'Unspecified'
p540
sg8
S'person'
p541
sg10
(lp542
I352
aI243
aI361
aI253
asg12
I0
sa(dp543
g5
I0
sg6
S'Unspecified'
p544
sg8
S'person'
p545
sg10
(lp546
I334
aI256
aI342
aI264
asg12
I0
sa(dp547
g5
I0
sg6
S'Unspecified'
p548
sg8
S'person'
p549
sg10
(lp550
I305
aI255
aI312
aI261
asg12
I0
sa(dp551
g5
I0
sg6
S'Unspecified'
p552
sg8
S'person'
p553
sg10
(lp554
I294
aI254
aI302
aI262
asg12
I0
sa(dp555
g5
I0
sg6
S'Unspecified'
p556
sg8
S'person'
p557
sg10
(lp558
I283
aI261
aI291
aI269
asg12
I0
sa(dp559
g5
I0
sg6
S'Unspecified'
p560
sg8
S'person'
p561
sg10
(lp562
I286
aI256
aI294
aI263
asg12
I0
sa(dp563
g5
I0
sg6
S'Unspecified'
p564
sg8
S'person'
p565
sg10
(lp566
I293
aI230
aI299
aI240
asg12
I0
sa(dp567
g5
I0
sg6
S'Unspecified'
p568
sg8
S'person'
p569
sg10
(lp570
I268
aI259
aI277
aI269
asg12
I0
sa(dp571
g5
I0
sg6
S'Unspecified'
p572
sg8
S'person'
p573
sg10
(lp574
I260
aI252
aI266
aI258
asg12
I0
sa(dp575
g5
I0
sg6
S'Unspecified'
p576
sg8
S'person'
p577
sg10
(lp578
I253
aI234
aI260
aI241
asg12
I0
sa(dp579
g5
I0
sg6
S'Unspecified'
p580
sg8
S'person'
p581
sg10
(lp582
I248
aI251
aI255
aI260
asg12
I0
sa(dp583
g5
I0
sg6
S'Unspecified'
p584
sg8
S'person'
p585
sg10
(lp586
I251
aI242
aI259
aI249
asg12
I0
sa(dp587
g5
I0
sg6
S'Unspecified'
p588
sg8
S'person'
p589
sg10
(lp590
I241
aI231
aI247
aI239
asg12
I0
sa(dp591
g5
I0
sg6
S'Unspecified'
p592
sg8
S'person'
p593
sg10
(lp594
I233
aI230
aI240
aI238
asg12
I0
sa(dp595
g5
I0
sg6
S'Unspecified'
p596
sg8
S'person'
p597
sg10
(lp598
I211
aI265
aI222
aI278
asg12
I0
sa(dp599
g5
I0
sg6
S'Unspecified'
p600
sg8
S'person'
p601
sg10
(lp602
I223
aI265
aI232
aI278
asg12
I0
sa(dp603
g5
I0
sg6
S'Unspecified'
p604
sg8
S'person'
p605
sg10
(lp606
I235
aI260
aI242
aI270
asg12
I0
sa(dp607
g5
I0
sg6
S'Unspecified'
p608
sg8
S'person'
p609
sg10
(lp610
I248
aI261
aI256
aI271
asg12
I0
sa(dp611
g5
I0
sg6
S'Unspecified'
p612
sg8
S'person'
p613
sg10
(lp614
I237
aI252
aI242
aI259
asg12
I0
sa(dp615
g5
I0
sg6
S'Unspecified'
p616
sg8
S'person'
p617
sg10
(lp618
I223
aI252
aI230
aI260
asg12
I0
sa(dp619
g5
I0
sg6
S'Unspecified'
p620
sg8
S'person'
p621
sg10
(lp622
I206
aI255
aI214
aI261
asg12
I0
sa(dp623
g5
I0
sg6
S'Unspecified'
p624
sg8
S'person'
p625
sg10
(lp626
I197
aI252
aI203
aI261
asg12
I0
sa(dp627
g5
I0
sg6
S'Unspecified'
p628
sg8
S'person'
p629
sg10
(lp630
I205
aI248
aI212
aI254
asg12
I0
sa(dp631
g5
I0
sg6
S'Unspecified'
p632
sg8
S'person'
p633
sg10
(lp634
I200
aI232
aI207
aI239
asg12
I0
sa(dp635
g5
I0
sg6
S'Unspecified'
p636
sg8
S'person'
p637
sg10
(lp638
I213
aI234
aI220
aI242
asg12
I0
sa(dp639
g5
I0
sg6
S'Unspecified'
p640
sg8
S'person'
p641
sg10
(lp642
I183
aI256
aI193
aI269
asg12
I0
sa(dp643
g5
I0
sg6
S'Unspecified'
p644
sg8
S'person'
p645
sg10
(lp646
I186
aI251
aI193
aI260
asg12
I0
sa(dp647
g5
I0
sg6
S'Unspecified'
p648
sg8
S'person'
p649
sg10
(lp650
I170
aI249
aI177
aI257
asg12
I0
sa(dp651
g5
I0
sg6
S'Unspecified'
p652
sg8
S'person'
p653
sg10
(lp654
I171
aI244
aI177
aI251
asg12
I0
sa(dp655
g5
I0
sg6
S'Unspecified'
p656
sg8
S'person'
p657
sg10
(lp658
I152
aI240
aI158
aI247
asg12
I0
sa(dp659
g5
I0
sg6
S'Unspecified'
p660
sg8
S'person'
p661
sg10
(lp662
I159
aI243
aI165
aI250
asg12
I0
sa(dp663
g5
I0
sg6
S'Unspecified'
p664
sg8
S'person'
p665
sg10
(lp666
I159
aI270
aI178
aI290
asg12
I0
sa(dp667
g5
I0
sg6
S'Unspecified'
p668
sg8
S'person'
p669
sg10
(lp670
I194
aI271
aI209
aI286
asg12
I0
sa(dp671
g5
I0
sg6
S'Unspecified'
p672
sg8
S'person'
p673
sg10
(lp674
I160
aI261
aI172
aI272
asg12
I0
sa(dp675
g5
I0
sg6
S'Unspecified'
p676
sg8
S'person'
p677
sg10
(lp678
I145
aI255
aI152
aI264
asg12
I0
sa(dp679
g5
I0
sg6
S'Unspecified'
p680
sg8
S'person'
p681
sg10
(lp682
I136
aI263
aI149
aI277
asg12
I0
sa(dp683
g5
I0
sg6
S'Unspecified'
p684
sg8
S'person'
p685
sg10
(lp686
I121
aI276
aI138
aI296
asg12
I0
sa(dp687
g5
I0
sg6
S'Unspecified'
p688
sg8
S'person'
p689
sg10
(lp690
I97
aI263
aI110
aI278
asg12
I0
sa(dp691
g5
I0
sg6
S'Unspecified'
p692
sg8
S'person'
p693
sg10
(lp694
I97
aI253
aI108
aI264
asg12
I0
sa(dp695
g5
I0
sg6
S'Unspecified'
p696
sg8
S'person'
p697
sg10
(lp698
I107
aI250
aI115
aI259
asg12
I0
sa(dp699
g5
I0
sg6
S'Unspecified'
p700
sg8
S'person'
p701
sg10
(lp702
I120
aI254
aI129
aI264
asg12
I0
sa(dp703
g5
I0
sg6
S'Unspecified'
p704
sg8
S'person'
p705
sg10
(lp706
I125
aI246
aI130
aI252
asg12
I0
sa(dp707
g5
I0
sg6
S'Unspecified'
p708
sg8
S'person'
p709
sg10
(lp710
I118
aI239
aI125
aI248
asg12
I0
sa(dp711
g5
I0
sg6
S'Unspecified'
p712
sg8
S'person'
p713
sg10
(lp714
I136
aI240
aI141
aI247
asg12
I0
sa(dp715
g5
I0
sg6
S'Unspecified'
p716
sg8
S'person'
p717
sg10
(lp718
I112
aI240
aI117
aI246
asg12
I0
sa(dp719
g5
I0
sg6
S'Unspecified'
p720
sg8
S'person'
p721
sg10
(lp722
I107
aI240
aI112
aI247
asg12
I0
sa(dp723
g5
I0
sg6
S'Unspecified'
p724
sg8
S'person'
p725
sg10
(lp726
I78
aI259
aI88
aI270
asg12
I0
sa(dp727
g5
I0
sg6
S'Unspecified'
p728
sg8
S'person'
p729
sg10
(lp730
I82
aI283
aI103
aI307
asg12
I0
sa(dp731
g5
I0
sg6
S'Unspecified'
p732
sg8
S'person'
p733
sg10
(lp734
I35
aI284
aI58
aI309
asg12
I0
sa(dp735
g5
I0
sg6
S'Unspecified'
p736
sg8
S'person'
p737
sg10
(lp738
I4
aI272
aI24
aI294
asg12
I0
sa(dp739
g5
I0
sg6
S'Unspecified'
p740
sg8
S'person'
p741
sg10
(lp742
I1
aI258
aI14
aI275
asg12
I1
sa(dp743
g5
I0
sg6
S'Unspecified'
p744
sg8
S'person'
p745
sg10
(lp746
I12
aI250
aI23
aI263
asg12
I0
sa(dp747
g5
I0
sg6
S'Unspecified'
p748
sg8
S'person'
p749
sg10
(lp750
I17
aI245
aI26
aI254
asg12
I0
sa(dp751
g5
I0
sg6
S'Unspecified'
p752
sg8
S'person'
p753
sg10
(lp754
I38
aI249
aI49
aI262
asg12
I0
sa(dp755
g5
I0
sg6
S'Unspecified'
p756
sg8
S'person'
p757
sg10
(lp758
I29
aI260
aI41
aI275
asg12
I0
sa(dp759
g5
I0
sg6
S'Unspecified'
p760
sg8
S'person'
p761
sg10
(lp762
I51
aI271
aI67
aI290
asg12
I0
sa(dp763
g5
I0
sg6
S'Unspecified'
p764
sg8
S'person'
p765
sg10
(lp766
I54
aI258
aI65
aI271
asg12
I0
sa(dp767
g5
I0
sg6
S'Unspecified'
p768
sg8
S'person'
p769
sg10
(lp770
I64
aI241
aI71
aI248
asg12
I0
sa(dp771
g5
I0
sg6
S'Unspecified'
p772
sg8
S'person'
p773
sg10
(lp774
I83
aI248
aI92
aI259
asg12
I0
sa(dp775
g5
I0
sg6
S'Unspecified'
p776
sg8
S'person'
p777
sg10
(lp778
I90
aI241
aI97
aI248
asg12
I0
sa(dp779
g5
I0
sg6
S'Unspecified'
p780
sg8
S'person'
p781
sg10
(lp782
I45
aI239
aI53
aI248
asg12
I0
sa(dp783
g5
I0
sg6
S'Unspecified'
p784
sg8
S'person'
p785
sg10
(lp786
I55
aI237
aI60
aI243
asg12
I0
sa(dp787
g5
I0
sg6
S'Unspecified'
p788
sg8
S'person'
p789
sg10
(lp790
I25
aI234
aI32
aI241
asg12
I0
sa(dp791
g5
I0
sg6
S'Unspecified'
p792
sg8
S'person'
p793
sg10
(lp794
I35
aI232
aI41
aI239
asg12
I0
sa(dp795
g5
I0
sg6
S'Unspecified'
p796
sg8
S'person'
p797
sg10
(lp798
I2
aI236
aI9
aI243
asg12
I0
sasS'PartB_00702'
p799
(lp800
(dp801
g5
I0
sg6
S'Unspecified'
p802
sg8
S'person'
p803
sg10
(lp804
I3
aI324
aI132
aI451
asg12
I0
sa(dp805
g5
I0
sg6
S'Unspecified'
p806
sg8
S'person'
p807
sg10
(lp808
I43
aI259
aI102
aI323
asg12
I0
sa(dp809
g5
I0
sg6
S'Unspecified'
p810
sg8
S'person'
p811
sg10
(lp812
I97
aI241
aI123
aI275
asg12
I0
sa(dp813
g5
I0
sg6
S'Unspecified'
p814
sg8
S'person'
p815
sg10
(lp816
I178
aI242
aI216
aI273
asg12
I0
sa(dp817
g5
I0
sg6
S'Unspecified'
p818
sg8
S'person'
p819
sg10
(lp820
I217
aI264
aI252
aI301
asg12
I0
sa(dp821
g5
I0
sg6
S'Unspecified'
p822
sg8
S'person'
p823
sg10
(lp824
I232
aI308
aI301
aI398
asg12
I0
sa(dp825
g5
I0
sg6
S'Unspecified'
p826
sg8
S'person'
p827
sg10
(lp828
I279
aI263
aI317
aI316
asg12
I0
sa(dp829
g5
I0
sg6
S'Unspecified'
p830
sg8
S'person'
p831
sg10
(lp832
I247
aI272
aI299
aI326
asg12
I0
sa(dp833
g5
I0
sg6
S'Unspecified'
p834
sg8
S'person'
p835
sg10
(lp836
I389
aI247
aI424
aI286
asg12
I0
sa(dp837
g5
I0
sg6
S'Unspecified'
p838
sg8
S'person'
p839
sg10
(lp840
I294
aI245
aI321
aI273
asg12
I0
sa(dp841
g5
I0
sg6
S'Unspecified'
p842
sg8
S'person'
p843
sg10
(lp844
I421
aI259
aI467
aI310
asg12
I0
sa(dp845
g5
I0
sg6
S'Unspecified'
p846
sg8
S'person'
p847
sg10
(lp848
I484
aI248
aI526
aI299
asg12
I0
sa(dp849
g5
I0
sg6
S'Unspecified'
p850
sg8
S'person'
p851
sg10
(lp852
I486
aI303
aI547
aI372
asg12
I0
sa(dp853
g5
I0
sg6
S'Unspecified'
p854
sg8
S'person'
p855
sg10
(lp856
I513
aI320
aI653
aI432
asg12
I0
sa(dp857
g5
I0
sg6
S'Unspecified'
p858
sg8
S'person'
p859
sg10
(lp860
I542
aI273
aI592
aI325
asg12
I0
sa(dp861
g5
I0
sg6
S'Unspecified'
p862
sg8
S'person'
p863
sg10
(lp864
I613
aI258
aI652
aI302
asg12
I0
sa(dp865
g5
I0
sg6
S'Unspecified'
p866
sg8
S'person'
p867
sg10
(lp868
I679
aI264
aI727
aI320
asg12
I0
sa(dp869
g5
I0
sg6
S'Unspecified'
p870
sg8
S'person'
p871
sg10
(lp872
I733
aI241
aI768
aI290
asg12
I0
sa(dp873
g5
I0
sg6
S'Unspecified'
p874
sg8
S'person'
p875
sg10
(lp876
I1040
aI11
aI1160
aI168
asg12
I0
sasS'001188'
p877
(lp878
(dp879
g5
I0
sg6
S'Unspecified'
p880
sg8
S'hat'
p881
sg10
(lp882
I193
aI35
aI298
aI167
asg12
I0
sasS'part2_000618'
p883
(lp884
(dp885
g5
I0
sg6
S'Unspecified'
p886
sg8
S'hat'
p887
sg10
(lp888
I124
aI10
aI178
aI77
asg12
I0
sasS'part2_000756'
p889
(lp890
(dp891
g5
I0
sg6
S'Unspecified'
p892
sg8
S'hat'
p893
sg10
(lp894
I437
aI3
aI683
aI322
asg12
I0
sa(dp895
g5
I0
sg6
S'Unspecified'
p896
sg8
S'hat'
p897
sg10
(lp898
I736
aI162
aI1050
aI488
asg12
I0
sasS'000704'
p899
(lp900
(dp901
g5
I0
sg6
S'Unspecified'
p902
sg8
S'hat'
p903
sg10
(lp904
I26
aI246
aI164
aI401
asg12
I0
sa(dp905
g5
I0
sg6
S'Unspecified'
p906
sg8
S'hat'
p907
sg10
(lp908
I199
aI289
aI300
aI427
asg12
I0
sa(dp909
g5
I0
sg6
S'Unspecified'
p910
sg8
S'hat'
p911
sg10
(lp912
I305
aI346
aI387
aI451
asg12
I0
sa(dp913
g5
I0
sg6
S'Unspecified'
p914
sg8
S'hat'
p915
sg10
(lp916
I412
aI307
aI502
aI439
asg12
I0
sa(dp917
g5
I1
sg6
S'Unspecified'
p918
sg8
S'hat'
p919
sg10
(lp920
I492
aI332
aI548
aI420
asg12
I0
sa(dp921
g5
I1
sg6
S'Unspecified'
p922
sg8
S'hat'
p923
sg10
(lp924
I381
aI361
aI421
aI426
asg12
I0
sasS'part2_000080'
p925
(lp926
(dp927
g5
I0
sg6
S'Unspecified'
p928
sg8
S'hat'
p929
sg10
(lp930
I287
aI31
aI420
aI174
asg12
I0
sasS'part2_001824'
p931
(lp932
(dp933
g5
I0
sg6
S'Unspecified'
p934
sg8
S'hat'
p935
sg10
(lp936
I161
aI1
aI362
aI266
asg12
I1
sasS'PartA_00738'
p937
(lp938
(dp939
g5
I0
sg6
S'Unspecified'
p940
sg8
S'person'
p941
sg10
(lp942
I192
aI231
aI255
aI288
asg12
I0
sa(dp943
g5
I0
sg6
S'Unspecified'
p944
sg8
S'person'
p945
sg10
(lp946
I269
aI144
aI293
aI174
asg12
I0
sa(dp947
g5
I0
sg6
S'Unspecified'
p948
sg8
S'person'
p949
sg10
(lp950
I298
aI149
aI320
aI174
asg12
I0
sa(dp951
g5
I0
sg6
S'Unspecified'
p952
sg8
S'person'
p953
sg10
(lp954
I330
aI124
aI348
aI141
asg12
I0
sa(dp955
g5
I0
sg6
S'Unspecified'
p956
sg8
S'person'
p957
sg10
(lp958
I333
aI138
aI355
aI161
asg12
I0
sa(dp959
g5
I0
sg6
S'Unspecified'
p960
sg8
S'person'
p961
sg10
(lp962
I364
aI138
aI387
aI171
asg12
I0
sa(dp963
g5
I0
sg6
S'Unspecified'
p964
sg8
S'person'
p965
sg10
(lp966
I378
aI115
aI394
aI139
asg12
I0
sa(dp967
g5
I0
sg6
S'Unspecified'
p968
sg8
S'person'
p969
sg10
(lp970
I402
aI103
aI419
aI121
asg12
I0
sa(dp971
g5
I0
sg6
S'Unspecified'
p972
sg8
S'person'
p973
sg10
(lp974
I405
aI169
aI433
aI193
asg12
I0
sa(dp975
g5
I0
sg6
S'Unspecified'
p976
sg8
S'person'
p977
sg10
(lp978
I419
aI123
aI439
aI145
asg12
I0
sa(dp979
g5
I0
sg6
S'Unspecified'
p980
sg8
S'person'
p981
sg10
(lp982
I434
aI104
aI453
aI121
asg12
I0
sa(dp983
g5
I0
sg6
S'Unspecified'
p984
sg8
S'person'
p985
sg10
(lp986
I472
aI81
aI492
aI101
asg12
I0
sa(dp987
g5
I0
sg6
S'Unspecified'
p988
sg8
S'person'
p989
sg10
(lp990
I460
aI118
aI484
aI135
asg12
I0
sa(dp991
g5
I0
sg6
S'Unspecified'
p992
sg8
S'person'
p993
sg10
(lp994
I513
aI75
aI530
aI95
asg12
I0
sa(dp995
g5
I0
sg6
S'Unspecified'
p996
sg8
S'person'
p997
sg10
(lp998
I499
aI108
aI515
aI130
asg12
I0
sa(dp999
g5
I0
sg6
S'Unspecified'
p1000
sg8
S'person'
p1001
sg10
(lp1002
I522
aI85
aI538
aI108
asg12
I0
sa(dp1003
g5
I0
sg6
S'Unspecified'
p1004
sg8
S'person'
p1005
sg10
(lp1006
I540
aI81
aI558
aI100
asg12
I0
sa(dp1007
g5
I0
sg6
S'Unspecified'
p1008
sg8
S'person'
p1009
sg10
(lp1010
I488
aI133
aI517
aI156
asg12
I0
sa(dp1011
g5
I0
sg6
S'Unspecified'
p1012
sg8
S'person'
p1013
sg10
(lp1014
I403
aI153
aI432
aI174
asg12
I0
sa(dp1015
g5
I0
sg6
S'Unspecified'
p1016
sg8
S'person'
p1017
sg10
(lp1018
I554
aI119
aI578
aI143
asg12
I0
sa(dp1019
g5
I0
sg6
S'Unspecified'
p1020
sg8
S'person'
p1021
sg10
(lp1022
I579
aI88
aI600
aI111
asg12
I0
sa(dp1023
g5
I0
sg6
S'Unspecified'
p1024
sg8
S'person'
p1025
sg10
(lp1026
I559
aI95
aI578
aI110
asg12
I0
sa(dp1027
g5
I0
sg6
S'Unspecified'
p1028
sg8
S'person'
p1029
sg10
(lp1030
I593
aI63
aI614
aI85
asg12
I0
sa(dp1031
g5
I0
sg6
S'Unspecified'
p1032
sg8
S'person'
p1033
sg10
(lp1034
I602
aI93
aI619
aI113
asg12
I0
sa(dp1035
g5
I0
sg6
S'Unspecified'
p1036
sg8
S'person'
p1037
sg10
(lp1038
I617
aI90
aI639
aI113
asg12
I0
sa(dp1039
g5
I0
sg6
S'Unspecified'
p1040
sg8
S'person'
p1041
sg10
(lp1042
I635
aI71
aI655
aI90
asg12
I0
sa(dp1043
g5
I0
sg6
S'Unspecified'
p1044
sg8
S'person'
p1045
sg10
(lp1046
I520
aI170
aI562
aI203
asg12
I0
sa(dp1047
g5
I0
sg6
S'Unspecified'
p1048
sg8
S'person'
p1049
sg10
(lp1050
I609
aI116
aI635
aI153
asg12
I0
sa(dp1051
g5
I0
sg6
S'Unspecified'
p1052
sg8
S'person'
p1053
sg10
(lp1054
I679
aI65
aI702
aI84
asg12
I0
sa(dp1055
g5
I0
sg6
S'Unspecified'
p1056
sg8
S'person'
p1057
sg10
(lp1058
I678
aI79
aI704
aI98
asg12
I0
sa(dp1059
g5
I0
sg6
S'Unspecified'
p1060
sg8
S'person'
p1061
sg10
(lp1062
I645
aI113
aI670
aI141
asg12
I0
sa(dp1063
g5
I0
sg6
S'Unspecified'
p1064
sg8
S'person'
p1065
sg10
(lp1066
I613
aI165
aI640
aI194
asg12
I0
sa(dp1067
g5
I0
sg6
S'Unspecified'
p1068
sg8
S'person'
p1069
sg10
(lp1070
I660
aI178
aI688
aI210
asg12
I0
sa(dp1071
g5
I0
sg6
S'Unspecified'
p1072
sg8
S'person'
p1073
sg10
(lp1074
I692
aI148
aI717
aI179
asg12
I0
sa(dp1075
g5
I0
sg6
S'Unspecified'
p1076
sg8
S'person'
p1077
sg10
(lp1078
I689
aI103
aI710
aI126
asg12
I0
sa(dp1079
g5
I0
sg6
S'Unspecified'
p1080
sg8
S'person'
p1081
sg10
(lp1082
I707
aI114
aI728
aI144
asg12
I0
sa(dp1083
g5
I0
sg6
S'Unspecified'
p1084
sg8
S'person'
p1085
sg10
(lp1086
I742
aI104
aI767
aI131
asg12
I0
sa(dp1087
g5
I0
sg6
S'Unspecified'
p1088
sg8
S'person'
p1089
sg10
(lp1090
I743
aI80
aI762
aI101
asg12
I0
sa(dp1091
g5
I0
sg6
S'Unspecified'
p1092
sg8
S'person'
p1093
sg10
(lp1094
I753
aI78
aI773
aI100
asg12
I0
sa(dp1095
g5
I0
sg6
S'Unspecified'
p1096
sg8
S'person'
p1097
sg10
(lp1098
I778
aI61
aI794
aI85
asg12
I0
sa(dp1099
g5
I0
sg6
S'Unspecified'
p1100
sg8
S'person'
p1101
sg10
(lp1102
I777
aI94
aI793
aI116
asg12
I0
sa(dp1103
g5
I0
sg6
S'Unspecified'
p1104
sg8
S'person'
p1105
sg10
(lp1106
I787
aI110
aI809
aI133
asg12
I0
sa(dp1107
g5
I0
sg6
S'Unspecified'
p1108
sg8
S'person'
p1109
sg10
(lp1110
I754
aI164
aI784
aI194
asg12
I0
sa(dp1111
g5
I0
sg6
S'Unspecified'
p1112
sg8
S'person'
p1113
sg10
(lp1114
I788
aI168
aI825
aI196
asg12
I0
sa(dp1115
g5
I0
sg6
S'Unspecified'
p1116
sg8
S'person'
p1117
sg10
(lp1118
I802
aI130
aI828
aI158
asg12
I0
sa(dp1119
g5
I0
sg6
S'Unspecified'
p1120
sg8
S'person'
p1121
sg10
(lp1122
I808
aI75
aI827
aI101
asg12
I0
sa(dp1123
g5
I0
sg6
S'Unspecified'
p1124
sg8
S'person'
p1125
sg10
(lp1126
I820
aI116
aI845
aI143
asg12
I0
sa(dp1127
g5
I0
sg6
S'Unspecified'
p1128
sg8
S'person'
p1129
sg10
(lp1130
I847
aI108
aI870
aI126
asg12
I0
sa(dp1131
g5
I0
sg6
S'Unspecified'
p1132
sg8
S'person'
p1133
sg10
(lp1134
I860
aI68
aI878
aI90
asg12
I0
sa(dp1135
g5
I0
sg6
S'Unspecified'
p1136
sg8
S'person'
p1137
sg10
(lp1138
I895
aI70
aI920
aI100
asg12
I0
sa(dp1139
g5
I0
sg6
S'Unspecified'
p1140
sg8
S'person'
p1141
sg10
(lp1142
I887
aI90
aI909
aI110
asg12
I0
sa(dp1143
g5
I0
sg6
S'Unspecified'
p1144
sg8
S'person'
p1145
sg10
(lp1146
I879
aI111
aI912
aI141
asg12
I0
sa(dp1147
g5
I0
sg6
S'Unspecified'
p1148
sg8
S'person'
p1149
sg10
(lp1150
I880
aI169
aI913
aI201
asg12
I0
sa(dp1151
g5
I0
sg6
S'Unspecified'
p1152
sg8
S'person'
p1153
sg10
(lp1154
I888
aI144
aI920
aI186
asg12
I0
sa(dp1155
g5
I0
sg6
S'Unspecified'
p1156
sg8
S'person'
p1157
sg10
(lp1158
I928
aI109
aI947
aI134
asg12
I0
sa(dp1159
g5
I0
sg6
S'Unspecified'
p1160
sg8
S'person'
p1161
sg10
(lp1162
I937
aI99
aI953
aI121
asg12
I0
sa(dp1163
g5
I0
sg6
S'Unspecified'
p1164
sg8
S'person'
p1165
sg10
(lp1166
I943
aI85
aI968
aI110
asg12
I0
sa(dp1167
g5
I0
sg6
S'Unspecified'
p1168
sg8
S'person'
p1169
sg10
(lp1170
I969
aI118
aI997
aI145
asg12
I0
sa(dp1171
g5
I0
sg6
S'Unspecified'
p1172
sg8
S'person'
p1173
sg10
(lp1174
I963
aI144
aI990
aI180
asg12
I0
sa(dp1175
g5
I0
sg6
S'Unspecified'
p1176
sg8
S'person'
p1177
sg10
(lp1178
I714
aI70
aI737
aI98
asg12
I0
sa(dp1179
g5
I0
sg6
S'Unspecified'
p1180
sg8
S'person'
p1181
sg10
(lp1182
I725
aI138
aI751
aI165
asg12
I0
sasS'PartA_01336'
p1183
(lp1184
(dp1185
g5
I0
sg6
S'Unspecified'
p1186
sg8
S'person'
p1187
sg10
(lp1188
I57
aI206
aI92
aI255
asg12
I0
sa(dp1189
g5
I0
sg6
S'Unspecified'
p1190
sg8
S'person'
p1191
sg10
(lp1192
I126
aI153
aI149
aI184
asg12
I0
sa(dp1193
g5
I0
sg6
S'Unspecified'
p1194
sg8
S'person'
p1195
sg10
(lp1196
I199
aI172
aI222
aI204
asg12
I0
sa(dp1197
g5
I0
sg6
S'Unspecified'
p1198
sg8
S'person'
p1199
sg10
(lp1200
I530
aI163
aI558
aI199
asg12
I0
sasS'PartB_01264'
p1201
(lp1202
(dp1203
g5
I0
sg6
S'Unspecified'
p1204
sg8
S'person'
p1205
sg10
(lp1206
I35
aI2572
aI394
aI3069
asg12
I0
sa(dp1207
g5
I0
sg6
S'Unspecified'
p1208
sg8
S'person'
p1209
sg10
(lp1210
I166
aI2447
aI397
aI2754
asg12
I0
sa(dp1211
g5
I0
sg6
S'Unspecified'
p1212
sg8
S'person'
p1213
sg10
(lp1214
I366
aI2513
aI600
aI2857
asg12
I0
sa(dp1215
g5
I0
sg6
S'Unspecified'
p1216
sg8
S'person'
p1217
sg10
(lp1218
I666
aI2426
aI888
aI2701
asg12
I0
sa(dp1219
g5
I0
sg6
S'Unspecified'
p1220
sg8
S'person'
p1221
sg10
(lp1222
I900
aI2651
aI1247
aI3101
asg12
I0
sa(dp1223
g5
I0
sg6
S'Unspecified'
p1224
sg8
S'person'
p1225
sg10
(lp1226
I928
aI2532
aI1185
aI2829
asg12
I0
sa(dp1227
g5
I0
sg6
S'Unspecified'
p1228
sg8
S'person'
p1229
sg10
(lp1230
I1288
aI2438
aI1522
aI2685
asg12
I0
sa(dp1231
g5
I0
sg6
S'Unspecified'
p1232
sg8
S'person'
p1233
sg10
(lp1234
I1256
aI2754
aI1783
aI3120
asg12
I1
sa(dp1235
g5
I0
sg6
S'Unspecified'
p1236
sg8
S'person'
p1237
sg10
(lp1238
I1444
aI2557
aI1828
aI2957
asg12
I0
sa(dp1239
g5
I0
sg6
S'Unspecified'
p1240
sg8
S'person'
p1241
sg10
(lp1242
I1825
aI2522
aI2094
aI2822
asg12
I0
sa(dp1243
g5
I0
sg6
S'Unspecified'
p1244
sg8
S'person'
p1245
sg10
(lp1246
I2113
aI2626
aI2491
aI3069
asg12
I0
sa(dp1247
g5
I0
sg6
S'Unspecified'
p1248
sg8
S'person'
p1249
sg10
(lp1250
I2419
aI2516
aI2613
aI2735
asg12
I0
sa(dp1251
g5
I0
sg6
S'Unspecified'
p1252
sg8
S'person'
p1253
sg10
(lp1254
I2510
aI2660
aI2803
aI2960
asg12
I0
sa(dp1255
g5
I0
sg6
S'Unspecified'
p1256
sg8
S'person'
p1257
sg10
(lp1258
I2697
aI2569
aI2994
aI2941
asg12
I0
sa(dp1259
g5
I0
sg6
S'Unspecified'
p1260
sg8
S'person'
p1261
sg10
(lp1262
I3222
aI1894
aI3441
aI2104
asg12
I0
sasS'part2_000319'
p1263
(lp1264
(dp1265
g5
I0
sg6
S'Unspecified'
p1266
sg8
S'hat'
p1267
sg10
(lp1268
I463
aI76
aI510
aI144
asg12
I0
sa(dp1269
g5
I0
sg6
S'Unspecified'
p1270
sg8
S'hat'
p1271
sg10
(lp1272
I528
aI11
aI622
aI112
asg12
I0
sa(dp1273
g5
I0
sg6
S'Unspecified'
p1274
sg8
S'hat'
p1275
sg10
(lp1276
I181
aI95
aI242
aI170
asg12
I0
sa(dp1277
g5
I0
sg6
S'Unspecified'
p1278
sg8
S'hat'
p1279
sg10
(lp1280
I89
aI39
aI176
aI144
asg12
I0
sa(dp1281
g5
I0
sg6
S'Unspecified'
p1282
sg8
S'person'
p1283
sg10
(lp1284
I358
aI82
aI410
aI149
asg12
I0
sasS'PartA_00561'
p1285
(lp1286
(dp1287
g5
I0
sg6
S'Unspecified'
p1288
sg8
S'person'
p1289
sg10
(lp1290
I229
aI258
aI275
aI315
asg12
I0
sa(dp1291
g5
I0
sg6
S'Unspecified'
p1292
sg8
S'person'
p1293
sg10
(lp1294
I289
aI180
aI321
aI212
asg12
I0
sa(dp1295
g5
I0
sg6
S'Unspecified'
p1296
sg8
S'person'
p1297
sg10
(lp1298
I415
aI140
aI438
aI167
asg12
I0
sa(dp1299
g5
I0
sg6
S'Unspecified'
p1300
sg8
S'person'
p1301
sg10
(lp1302
I453
aI158
aI475
aI185
asg12
I0
sa(dp1303
g5
I0
sg6
S'Unspecified'
p1304
sg8
S'person'
p1305
sg10
(lp1306
I498
aI127
aI516
aI152
asg12
I0
sa(dp1307
g5
I0
sg6
S'Unspecified'
p1308
sg8
S'person'
p1309
sg10
(lp1310
I598
aI125
aI620
aI155
asg12
I0
sa(dp1311
g5
I0
sg6
S'Unspecified'
p1312
sg8
S'person'
p1313
sg10
(lp1314
I505
aI140
aI540
aI178
asg12
I0
sa(dp1315
g5
I0
sg6
S'Unspecified'
p1316
sg8
S'person'
p1317
sg10
(lp1318
I800
aI138
aI829
aI178
asg12
I0
sa(dp1319
g5
I0
sg6
S'Unspecified'
p1320
sg8
S'person'
p1321
sg10
(lp1322
I870
aI149
aI897
aI187
asg12
I0
sa(dp1323
g5
I0
sg6
S'Unspecified'
p1324
sg8
S'person'
p1325
sg10
(lp1326
I931
aI125
aI959
aI160
asg12
I0
sa(dp1327
g5
I0
sg6
S'Unspecified'
p1328
sg8
S'person'
p1329
sg10
(lp1330
I997
aI229
aI1036
aI283
asg12
I0
sa(dp1331
g5
I0
sg6
S'Unspecified'
p1332
sg8
S'person'
p1333
sg10
(lp1334
I1057
aI110
aI1081
aI138
asg12
I0
sa(dp1335
g5
I0
sg6
S'Unspecified'
p1336
sg8
S'person'
p1337
sg10
(lp1338
I1099
aI123
aI1120
aI149
asg12
I0
sa(dp1339
g5
I0
sg6
S'Unspecified'
p1340
sg8
S'person'
p1341
sg10
(lp1342
I1015
aI137
aI1042
aI173
asg12
I0
sa(dp1343
g5
I0
sg6
S'Unspecified'
p1344
sg8
S'person'
p1345
sg10
(lp1346
I1082
aI146
aI1099
aI170
asg12
I0
sa(dp1347
g5
I0
sg6
S'Unspecified'
p1348
sg8
S'person'
p1349
sg10
(lp1350
I1043
aI201
aI1068
aI241
asg12
I0
sa(dp1351
g5
I0
sg6
S'Unspecified'
p1352
sg8
S'person'
p1353
sg10
(lp1354
I1096
aI215
aI1130
aI252
asg12
I0
sa(dp1355
g5
I0
sg6
S'Unspecified'
p1356
sg8
S'person'
p1357
sg10
(lp1358
I1110
aI228
aI1143
aI274
asg12
I0
sasS'PartA_01358'
p1359
(lp1360
(dp1361
g5
I0
sg6
S'Unspecified'
p1362
sg8
S'person'
p1363
sg10
(lp1364
I90
aI220
aI128
aI266
asg12
I0
sa(dp1365
g5
I0
sg6
S'Unspecified'
p1366
sg8
S'person'
p1367
sg10
(lp1368
I271
aI161
aI291
aI181
asg12
I0
sa(dp1369
g5
I0
sg6
S'Unspecified'
p1370
sg8
S'person'
p1371
sg10
(lp1372
I304
aI148
aI319
aI168
asg12
I0
sa(dp1373
g5
I0
sg6
S'Unspecified'
p1374
sg8
S'person'
p1375
sg10
(lp1376
I314
aI149
aI336
aI171
asg12
I0
sa(dp1377
g5
I0
sg6
S'Unspecified'
p1378
sg8
S'person'
p1379
sg10
(lp1380
I361
aI153
aI381
aI173
asg12
I0
sa(dp1381
g5
I0
sg6
S'Unspecified'
p1382
sg8
S'person'
p1383
sg10
(lp1384
I339
aI126
aI353
aI145
asg12
I0
sa(dp1385
g5
I0
sg6
S'Unspecified'
p1386
sg8
S'person'
p1387
sg10
(lp1388
I364
aI119
aI381
aI138
asg12
I0
sa(dp1389
g5
I0
sg6
S'Unspecified'
p1390
sg8
S'person'
p1391
sg10
(lp1392
I395
aI127
aI414
aI144
asg12
I0
sa(dp1393
g5
I0
sg6
S'Unspecified'
p1394
sg8
S'person'
p1395
sg10
(lp1396
I454
aI151
aI475
aI176
asg12
I0
sa(dp1397
g5
I0
sg6
S'Unspecified'
p1398
sg8
S'person'
p1399
sg10
(lp1400
I440
aI124
aI461
aI145
asg12
I0
sa(dp1401
g5
I0
sg6
S'Unspecified'
p1402
sg8
S'person'
p1403
sg10
(lp1404
I403
aI117
aI415
aI131
asg12
I0
sa(dp1405
g5
I0
sg6
S'Unspecified'
p1406
sg8
S'person'
p1407
sg10
(lp1408
I407
aI111
aI419
aI124
asg12
I0
sa(dp1409
g5
I0
sg6
S'Unspecified'
p1410
sg8
S'person'
p1411
sg10
(lp1412
I437
aI94
aI449
aI110
asg12
I0
sa(dp1413
g5
I0
sg6
S'Unspecified'
p1414
sg8
S'person'
p1415
sg10
(lp1416
I449
aI103
aI466
aI118
asg12
I0
sa(dp1417
g5
I0
sg6
S'Unspecified'
p1418
sg8
S'person'
p1419
sg10
(lp1420
I494
aI112
aI511
aI129
asg12
I0
sa(dp1421
g5
I0
sg6
S'Unspecified'
p1422
sg8
S'person'
p1423
sg10
(lp1424
I482
aI109
aI497
aI128
asg12
I0
sa(dp1425
g5
I0
sg6
S'Unspecified'
p1426
sg8
S'person'
p1427
sg10
(lp1428
I482
aI93
aI496
aI110
asg12
I0
sa(dp1429
g5
I0
sg6
S'Unspecified'
p1430
sg8
S'person'
p1431
sg10
(lp1432
I481
aI79
aI495
aI94
asg12
I0
sa(dp1433
g5
I0
sg6
S'Unspecified'
p1434
sg8
S'person'
p1435
sg10
(lp1436
I510
aI91
aI525
aI107
asg12
I0
sa(dp1437
g5
I0
sg6
S'Unspecified'
p1438
sg8
S'person'
p1439
sg10
(lp1440
I503
aI80
aI515
aI96
asg12
I0
sa(dp1441
g5
I0
sg6
S'Unspecified'
p1442
sg8
S'person'
p1443
sg10
(lp1444
I520
aI73
aI532
aI88
asg12
I0
sa(dp1445
g5
I0
sg6
S'Unspecified'
p1446
sg8
S'person'
p1447
sg10
(lp1448
I542
aI111
aI557
aI125
asg12
I0
sa(dp1449
g5
I0
sg6
S'Unspecified'
p1450
sg8
S'person'
p1451
sg10
(lp1452
I525
aI128
aI547
aI150
asg12
I0
sa(dp1453
g5
I0
sg6
S'Unspecified'
p1454
sg8
S'person'
p1455
sg10
(lp1456
I508
aI165
aI538
aI193
asg12
I0
sa(dp1457
g5
I0
sg6
S'Unspecified'
p1458
sg8
S'person'
p1459
sg10
(lp1460
I559
aI73
aI576
aI92
asg12
I0
sa(dp1461
g5
I0
sg6
S'Unspecified'
p1462
sg8
S'person'
p1463
sg10
(lp1464
I582
aI85
aI600
aI104
asg12
I0
sa(dp1465
g5
I0
sg6
S'Unspecified'
p1466
sg8
S'person'
p1467
sg10
(lp1468
I620
aI83
aI636
aI104
asg12
I0
sa(dp1469
g5
I0
sg6
S'Unspecified'
p1470
sg8
S'person'
p1471
sg10
(lp1472
I580
aI107
aI598
aI126
asg12
I0
sa(dp1473
g5
I0
sg6
S'Unspecified'
p1474
sg8
S'person'
p1475
sg10
(lp1476
I606
aI61
aI619
aI74
asg12
I0
sa(dp1477
g5
I0
sg6
S'Unspecified'
p1478
sg8
S'person'
p1479
sg10
(lp1480
I658
aI77
aI672
aI93
asg12
I0
sa(dp1481
g5
I0
sg6
S'Unspecified'
p1482
sg8
S'person'
p1483
sg10
(lp1484
I673
aI68
aI685
aI83
asg12
I0
sa(dp1485
g5
I0
sg6
S'Unspecified'
p1486
sg8
S'person'
p1487
sg10
(lp1488
I656
aI67
aI668
aI80
asg12
I0
sa(dp1489
g5
I0
sg6
S'Unspecified'
p1490
sg8
S'person'
p1491
sg10
(lp1492
I655
aI53
aI668
aI66
asg12
I0
sa(dp1493
g5
I0
sg6
S'Unspecified'
p1494
sg8
S'person'
p1495
sg10
(lp1496
I683
aI55
aI697
aI72
asg12
I0
sa(dp1497
g5
I0
sg6
S'Unspecified'
p1498
sg8
S'person'
p1499
sg10
(lp1500
I634
aI64
aI650
aI77
asg12
I0
sa(dp1501
g5
I0
sg6
S'Unspecified'
p1502
sg8
S'person'
p1503
sg10
(lp1504
I715
aI65
aI729
aI82
asg12
I0
sa(dp1505
g5
I0
sg6
S'Unspecified'
p1506
sg8
S'person'
p1507
sg10
(lp1508
I733
aI76
aI747
aI90
asg12
I0
sa(dp1509
g5
I0
sg6
S'Unspecified'
p1510
sg8
S'person'
p1511
sg10
(lp1512
I753
aI73
aI767
aI91
asg12
I0
sa(dp1513
g5
I0
sg6
S'Unspecified'
p1514
sg8
S'person'
p1515
sg10
(lp1516
I740
aI53
aI752
aI69
asg12
I0
sa(dp1517
g5
I0
sg6
S'Unspecified'
p1518
sg8
S'person'
p1519
sg10
(lp1520
I689
aI95
aI707
aI112
asg12
I0
sa(dp1521
g5
I0
sg6
S'Unspecified'
p1522
sg8
S'person'
p1523
sg10
(lp1524
I691
aI115
aI708
aI138
asg12
I0
sa(dp1525
g5
I0
sg6
S'Unspecified'
p1526
sg8
S'person'
p1527
sg10
(lp1528
I643
aI119
aI667
aI139
asg12
I0
sa(dp1529
g5
I0
sg6
S'Unspecified'
p1530
sg8
S'person'
p1531
sg10
(lp1532
I644
aI141
aI669
aI167
asg12
I0
sa(dp1533
g5
I0
sg6
S'Unspecified'
p1534
sg8
S'person'
p1535
sg10
(lp1536
I591
aI162
aI618
aI192
asg12
I0
sa(dp1537
g5
I0
sg6
S'Unspecified'
p1538
sg8
S'person'
p1539
sg10
(lp1540
I596
aI136
aI619
aI161
asg12
I0
sa(dp1541
g5
I0
sg6
S'Unspecified'
p1542
sg8
S'person'
p1543
sg10
(lp1544
I630
aI187
aI661
aI221
asg12
I0
sa(dp1545
g5
I0
sg6
S'Unspecified'
p1546
sg8
S'person'
p1547
sg10
(lp1548
I708
aI191
aI735
aI227
asg12
I0
sa(dp1549
g5
I0
sg6
S'Unspecified'
p1550
sg8
S'person'
p1551
sg10
(lp1552
I750
aI161
aI776
aI190
asg12
I0
sa(dp1553
g5
I0
sg6
S'Unspecified'
p1554
sg8
S'person'
p1555
sg10
(lp1556
I716
aI133
aI736
aI158
asg12
I0
sa(dp1557
g5
I0
sg6
S'Unspecified'
p1558
sg8
S'person'
p1559
sg10
(lp1560
I746
aI115
aI765
aI140
asg12
I0
sa(dp1561
g5
I0
sg6
S'Unspecified'
p1562
sg8
S'person'
p1563
sg10
(lp1564
I734
aI100
aI748
aI118
asg12
I0
sa(dp1565
g5
I0
sg6
S'Unspecified'
p1566
sg8
S'person'
p1567
sg10
(lp1568
I777
aI84
aI793
aI102
asg12
I0
sa(dp1569
g5
I0
sg6
S'Unspecified'
p1570
sg8
S'person'
p1571
sg10
(lp1572
I794
aI101
aI810
aI119
asg12
I0
sa(dp1573
g5
I0
sg6
S'Unspecified'
p1574
sg8
S'person'
p1575
sg10
(lp1576
I798
aI127
aI818
aI159
asg12
I0
sa(dp1577
g5
I0
sg6
S'Unspecified'
p1578
sg8
S'person'
p1579
sg10
(lp1580
I826
aI155
aI851
aI190
asg12
I0
sa(dp1581
g5
I0
sg6
S'Unspecified'
p1582
sg8
S'person'
p1583
sg10
(lp1584
I920
aI120
aI939
aI142
asg12
I0
sa(dp1585
g5
I0
sg6
S'Unspecified'
p1586
sg8
S'person'
p1587
sg10
(lp1588
I986
aI149
aI1006
aI174
asg12
I0
sa(dp1589
g5
I0
sg6
S'Unspecified'
p1590
sg8
S'person'
p1591
sg10
(lp1592
I934
aI110
aI950
aI126
asg12
I0
sa(dp1593
g5
I0
sg6
S'Unspecified'
p1594
sg8
S'person'
p1595
sg10
(lp1596
I907
aI105
aI920
aI125
asg12
I0
sa(dp1597
g5
I0
sg6
S'Unspecified'
p1598
sg8
S'person'
p1599
sg10
(lp1600
I905
aI85
aI921
aI103
asg12
I0
sa(dp1601
g5
I0
sg6
S'Unspecified'
p1602
sg8
S'person'
p1603
sg10
(lp1604
I925
aI82
aI938
aI98
asg12
I0
sa(dp1605
g5
I0
sg6
S'Unspecified'
p1606
sg8
S'person'
p1607
sg10
(lp1608
I925
aI68
aI936
aI83
asg12
I0
sa(dp1609
g5
I0
sg6
S'Unspecified'
p1610
sg8
S'person'
p1611
sg10
(lp1612
I955
aI69
aI965
aI84
asg12
I0
sa(dp1613
g5
I0
sg6
S'Unspecified'
p1614
sg8
S'person'
p1615
sg10
(lp1616
I949
aI102
aI964
aI116
asg12
I0
sa(dp1617
g5
I0
sg6
S'Unspecified'
p1618
sg8
S'person'
p1619
sg10
(lp1620
I949
aI87
aI965
aI102
asg12
I0
sa(dp1621
g5
I0
sg6
S'Unspecified'
p1622
sg8
S'person'
p1623
sg10
(lp1624
I991
aI87
aI1007
aI110
asg12
I0
sa(dp1625
g5
I0
sg6
S'Unspecified'
p1626
sg8
S'person'
p1627
sg10
(lp1628
I851
aI95
aI870
aI117
asg12
I0
sa(dp1629
g5
I0
sg6
S'Unspecified'
p1630
sg8
S'person'
p1631
sg10
(lp1632
I865
aI86
aI878
aI104
asg12
I0
sa(dp1633
g5
I0
sg6
S'Unspecified'
p1634
sg8
S'person'
p1635
sg10
(lp1636
I885
aI73
aI900
aI92
asg12
I0
sa(dp1637
g5
I0
sg6
S'Unspecified'
p1638
sg8
S'person'
p1639
sg10
(lp1640
I864
aI70
aI877
aI86
asg12
I0
sa(dp1641
g5
I0
sg6
S'Unspecified'
p1642
sg8
S'person'
p1643
sg10
(lp1644
I846
aI72
aI859
aI88
asg12
I0
sa(dp1645
g5
I0
sg6
S'Unspecified'
p1646
sg8
S'person'
p1647
sg10
(lp1648
I830
aI63
aI846
aI79
asg12
I0
sa(dp1649
g5
I0
sg6
S'Unspecified'
p1650
sg8
S'person'
p1651
sg10
(lp1652
I803
aI84
aI819
aI102
asg12
I0
sa(dp1653
g5
I0
sg6
S'Unspecified'
p1654
sg8
S'person'
p1655
sg10
(lp1656
I791
aI78
aI807
aI94
asg12
I0
sa(dp1657
g5
I0
sg6
S'Unspecified'
p1658
sg8
S'person'
p1659
sg10
(lp1660
I807
aI69
aI820
aI84
asg12
I0
sa(dp1661
g5
I0
sg6
S'Unspecified'
p1662
sg8
S'person'
p1663
sg10
(lp1664
I801
aI55
aI815
aI70
asg12
I0
sa(dp1665
g5
I0
sg6
S'Unspecified'
p1666
sg8
S'person'
p1667
sg10
(lp1668
I784
aI57
aI797
aI77
asg12
I0
sasS'PartA_01190'
p1669
(lp1670
(dp1671
g5
I0
sg6
S'Unspecified'
p1672
sg8
S'person'
p1673
sg10
(lp1674
I437
aI119
aI462
aI149
asg12
I0
sa(dp1675
g5
I0
sg6
S'Unspecified'
p1676
sg8
S'person'
p1677
sg10
(lp1678
I451
aI97
aI472
aI123
asg12
I0
sa(dp1679
g5
I0
sg6
S'Unspecified'
p1680
sg8
S'person'
p1681
sg10
(lp1682
I504
aI87
aI533
aI114
asg12
I0
sasS'PartA_00208'
p1683
(lp1684
(dp1685
g5
I0
sg6
S'Unspecified'
p1686
sg8
S'person'
p1687
sg10
(lp1688
I80
aI149
aI101
aI177
asg12
I0
sa(dp1689
g5
I0
sg6
S'Unspecified'
p1690
sg8
S'person'
p1691
sg10
(lp1692
I274
aI128
aI290
aI146
asg12
I0
sa(dp1693
g5
I0
sg6
S'Unspecified'
p1694
sg8
S'person'
p1695
sg10
(lp1696
I290
aI127
aI304
aI143
asg12
I0
sa(dp1697
g5
I0
sg6
S'Unspecified'
p1698
sg8
S'person'
p1699
sg10
(lp1700
I327
aI121
aI343
aI139
asg12
I0
sa(dp1701
g5
I0
sg6
S'Unspecified'
p1702
sg8
S'person'
p1703
sg10
(lp1704
I347
aI98
aI362
aI115
asg12
I0
sa(dp1705
g5
I0
sg6
S'Unspecified'
p1706
sg8
S'person'
p1707
sg10
(lp1708
I351
aI108
aI367
aI124
asg12
I0
sa(dp1709
g5
I0
sg6
S'Unspecified'
p1710
sg8
S'person'
p1711
sg10
(lp1712
I345
aI124
aI364
aI142
asg12
I0
sa(dp1713
g5
I0
sg6
S'Unspecified'
p1714
sg8
S'person'
p1715
sg10
(lp1716
I374
aI130
aI392
aI149
asg12
I0
sa(dp1717
g5
I0
sg6
S'Unspecified'
p1718
sg8
S'person'
p1719
sg10
(lp1720
I376
aI112
aI391
aI128
asg12
I0
sa(dp1721
g5
I0
sg6
S'Unspecified'
p1722
sg8
S'person'
p1723
sg10
(lp1724
I387
aI113
aI406
aI135
asg12
I0
sa(dp1725
g5
I0
sg6
S'Unspecified'
p1726
sg8
S'person'
p1727
sg10
(lp1728
I406
aI128
aI427
aI150
asg12
I0
sa(dp1729
g5
I0
sg6
S'Unspecified'
p1730
sg8
S'person'
p1731
sg10
(lp1732
I403
aI94
aI418
aI110
asg12
I0
sa(dp1733
g5
I0
sg6
S'Unspecified'
p1734
sg8
S'person'
p1735
sg10
(lp1736
I401
aI90
aI414
aI103
asg12
I0
sa(dp1737
g5
I0
sg6
S'Unspecified'
p1738
sg8
S'person'
p1739
sg10
(lp1740
I426
aI92
aI438
aI102
asg12
I0
sa(dp1741
g5
I0
sg6
S'Unspecified'
p1742
sg8
S'person'
p1743
sg10
(lp1744
I422
aI105
aI436
aI119
asg12
I0
sa(dp1745
g5
I0
sg6
S'Unspecified'
p1746
sg8
S'person'
p1747
sg10
(lp1748
I427
aI112
aI442
aI129
asg12
I0
sa(dp1749
g5
I0
sg6
S'Unspecified'
p1750
sg8
S'person'
p1751
sg10
(lp1752
I445
aI110
aI460
aI124
asg12
I0
sa(dp1753
g5
I0
sg6
S'Unspecified'
p1754
sg8
S'person'
p1755
sg10
(lp1756
I457
aI116
aI476
aI135
asg12
I0
sa(dp1757
g5
I0
sg6
S'Unspecified'
p1758
sg8
S'person'
p1759
sg10
(lp1760
I440
aI137
aI462
aI159
asg12
I0
sa(dp1761
g5
I0
sg6
S'Unspecified'
p1762
sg8
S'person'
p1763
sg10
(lp1764
I448
aI86
aI464
aI103
asg12
I0
sa(dp1765
g5
I0
sg6
S'Unspecified'
p1766
sg8
S'person'
p1767
sg10
(lp1768
I489
aI84
aI501
aI98
asg12
I0
sa(dp1769
g5
I0
sg6
S'Unspecified'
p1770
sg8
S'person'
p1771
sg10
(lp1772
I499
aI85
aI513
aI100
asg12
I0
sa(dp1773
g5
I0
sg6
S'Unspecified'
p1774
sg8
S'person'
p1775
sg10
(lp1776
I506
aI73
aI517
aI84
asg12
I0
sa(dp1777
g5
I0
sg6
S'Unspecified'
p1778
sg8
S'person'
p1779
sg10
(lp1780
I532
aI72
aI547
aI89
asg12
I0
sa(dp1781
g5
I0
sg6
S'Unspecified'
p1782
sg8
S'person'
p1783
sg10
(lp1784
I526
aI101
aI542
aI117
asg12
I0
sa(dp1785
g5
I0
sg6
S'Unspecified'
p1786
sg8
S'person'
p1787
sg10
(lp1788
I507
aI102
aI521
aI119
asg12
I0
sa(dp1789
g5
I0
sg6
S'Unspecified'
p1790
sg8
S'person'
p1791
sg10
(lp1792
I539
aI88
aI553
aI105
asg12
I0
sa(dp1793
g5
I0
sg6
S'Unspecified'
p1794
sg8
S'person'
p1795
sg10
(lp1796
I553
aI70
aI566
aI85
asg12
I0
sa(dp1797
g5
I0
sg6
S'Unspecified'
p1798
sg8
S'person'
p1799
sg10
(lp1800
I556
aI76
aI571
aI93
asg12
I0
sa(dp1801
g5
I0
sg6
S'Unspecified'
p1802
sg8
S'person'
p1803
sg10
(lp1804
I560
aI100
aI575
aI120
asg12
I0
sa(dp1805
g5
I0
sg6
S'Unspecified'
p1806
sg8
S'person'
p1807
sg10
(lp1808
I571
aI89
aI585
aI108
asg12
I0
sa(dp1809
g5
I0
sg6
S'Unspecified'
p1810
sg8
S'person'
p1811
sg10
(lp1812
I579
aI78
aI592
aI94
asg12
I0
sa(dp1813
g5
I0
sg6
S'Unspecified'
p1814
sg8
S'person'
p1815
sg10
(lp1816
I598
aI42
aI610
aI54
asg12
I0
sa(dp1817
g5
I0
sg6
S'Unspecified'
p1818
sg8
S'person'
p1819
sg10
(lp1820
I622
aI58
aI632
aI69
asg12
I0
sa(dp1821
g5
I0
sg6
S'Unspecified'
p1822
sg8
S'person'
p1823
sg10
(lp1824
I620
aI68
aI632
aI80
asg12
I0
sa(dp1825
g5
I0
sg6
S'Unspecified'
p1826
sg8
S'person'
p1827
sg10
(lp1828
I599
aI80
aI612
aI95
asg12
I0
sa(dp1829
g5
I0
sg6
S'Unspecified'
p1830
sg8
S'person'
p1831
sg10
(lp1832
I610
aI90
aI623
aI106
asg12
I0
sa(dp1833
g5
I0
sg6
S'Unspecified'
p1834
sg8
S'person'
p1835
sg10
(lp1836
I630
aI78
aI642
aI93
asg12
I0
sa(dp1837
g5
I0
sg6
S'Unspecified'
p1838
sg8
S'person'
p1839
sg10
(lp1840
I645
aI66
aI659
aI81
asg12
I0
sa(dp1841
g5
I0
sg6
S'Unspecified'
p1842
sg8
S'person'
p1843
sg10
(lp1844
I665
aI61
aI677
aI74
asg12
I0
sa(dp1845
g5
I0
sg6
S'Unspecified'
p1846
sg8
S'person'
p1847
sg10
(lp1848
I668
aI69
aI680
aI81
asg12
I0
sa(dp1849
g5
I0
sg6
S'Unspecified'
p1850
sg8
S'person'
p1851
sg10
(lp1852
I648
aI87
aI660
aI101
asg12
I0
sa(dp1853
g5
I0
sg6
S'Unspecified'
p1854
sg8
S'person'
p1855
sg10
(lp1856
I685
aI74
aI699
aI90
asg12
I0
sa(dp1857
g5
I0
sg6
S'Unspecified'
p1858
sg8
S'person'
p1859
sg10
(lp1860
I692
aI63
aI703
aI75
asg12
I0
sa(dp1861
g5
I0
sg6
S'Unspecified'
p1862
sg8
S'person'
p1863
sg10
(lp1864
I713
aI65
aI727
aI79
asg12
I0
sa(dp1865
g5
I0
sg6
S'Unspecified'
p1866
sg8
S'person'
p1867
sg10
(lp1868
I595
aI125
aI615
aI146
asg12
I0
sa(dp1869
g5
I0
sg6
S'Unspecified'
p1870
sg8
S'person'
p1871
sg10
(lp1872
I637
aI139
aI663
aI162
asg12
I0
sa(dp1873
g5
I0
sg6
S'Unspecified'
p1874
sg8
S'person'
p1875
sg10
(lp1876
I673
aI101
aI690
aI120
asg12
I0
sa(dp1877
g5
I0
sg6
S'Unspecified'
p1878
sg8
S'person'
p1879
sg10
(lp1880
I686
aI121
aI704
aI143
asg12
I0
sa(dp1881
g5
I0
sg6
S'Unspecified'
p1882
sg8
S'person'
p1883
sg10
(lp1884
I691
aI147
aI709
aI171
asg12
I0
sa(dp1885
g5
I0
sg6
S'Unspecified'
p1886
sg8
S'person'
p1887
sg10
(lp1888
I697
aI167
aI723
aI202
asg12
I0
sa(dp1889
g5
I0
sg6
S'Unspecified'
p1890
sg8
S'person'
p1891
sg10
(lp1892
I720
aI103
aI736
aI121
asg12
I0
sa(dp1893
g5
I0
sg6
S'Unspecified'
p1894
sg8
S'person'
p1895
sg10
(lp1896
I704
aI99
aI723
aI118
asg12
I0
sa(dp1897
g5
I0
sg6
S'Unspecified'
p1898
sg8
S'person'
p1899
sg10
(lp1900
I740
aI83
aI754
aI99
asg12
I0
sa(dp1901
g5
I0
sg6
S'Unspecified'
p1902
sg8
S'person'
p1903
sg10
(lp1904
I742
aI93
aI760
aI112
asg12
I0
sa(dp1905
g5
I0
sg6
S'Unspecified'
p1906
sg8
S'person'
p1907
sg10
(lp1908
I759
aI109
aI777
aI128
asg12
I0
sa(dp1909
g5
I0
sg6
S'Unspecified'
p1910
sg8
S'person'
p1911
sg10
(lp1912
I739
aI128
aI757
aI150
asg12
I0
sa(dp1913
g5
I0
sg6
S'Unspecified'
p1914
sg8
S'person'
p1915
sg10
(lp1916
I773
aI132
aI792
aI159
asg12
I0
sa(dp1917
g5
I0
sg6
S'Unspecified'
p1918
sg8
S'person'
p1919
sg10
(lp1920
I796
aI158
aI821
aI184
asg12
I0
sa(dp1921
g5
I0
sg6
S'Unspecified'
p1922
sg8
S'person'
p1923
sg10
(lp1924
I807
aI118
aI825
aI138
asg12
I0
sa(dp1925
g5
I0
sg6
S'Unspecified'
p1926
sg8
S'person'
p1927
sg10
(lp1928
I826
aI143
aI848
aI170
asg12
I0
sa(dp1929
g5
I0
sg6
S'Unspecified'
p1930
sg8
S'person'
p1931
sg10
(lp1932
I848
aI121
aI865
aI142
asg12
I0
sa(dp1933
g5
I0
sg6
S'Unspecified'
p1934
sg8
S'person'
p1935
sg10
(lp1936
I914
aI192
aI940
aI223
asg12
I0
sa(dp1937
g5
I0
sg6
S'Unspecified'
p1938
sg8
S'person'
p1939
sg10
(lp1940
I930
aI142
aI948
aI164
asg12
I0
sa(dp1941
g5
I0
sg6
S'Unspecified'
p1942
sg8
S'person'
p1943
sg10
(lp1944
I954
aI122
aI969
aI140
asg12
I0
sa(dp1945
g5
I0
sg6
S'Unspecified'
p1946
sg8
S'person'
p1947
sg10
(lp1948
I944
aI115
aI959
aI134
asg12
I0
sa(dp1949
g5
I0
sg6
S'Unspecified'
p1950
sg8
S'person'
p1951
sg10
(lp1952
I962
aI108
aI975
aI125
asg12
I0
sa(dp1953
g5
I0
sg6
S'Unspecified'
p1954
sg8
S'person'
p1955
sg10
(lp1956
I956
aI106
aI967
aI119
asg12
I0
sa(dp1957
g5
I0
sg6
S'Unspecified'
p1958
sg8
S'person'
p1959
sg10
(lp1960
I921
aI88
aI935
aI101
asg12
I0
sa(dp1961
g5
I0
sg6
S'Unspecified'
p1962
sg8
S'person'
p1963
sg10
(lp1964
I916
aI99
aI930
aI118
asg12
I0
sa(dp1965
g5
I0
sg6
S'Unspecified'
p1966
sg8
S'person'
p1967
sg10
(lp1968
I910
aI101
aI923
aI120
asg12
I0
sa(dp1969
g5
I0
sg6
S'Unspecified'
p1970
sg8
S'person'
p1971
sg10
(lp1972
I903
aI115
aI916
aI138
asg12
I0
sa(dp1973
g5
I0
sg6
S'Unspecified'
p1974
sg8
S'person'
p1975
sg10
(lp1976
I886
aI130
aI906
aI154
asg12
I0
sa(dp1977
g5
I0
sg6
S'Unspecified'
p1978
sg8
S'person'
p1979
sg10
(lp1980
I878
aI101
aI894
aI118
asg12
I0
sa(dp1981
g5
I0
sg6
S'Unspecified'
p1982
sg8
S'person'
p1983
sg10
(lp1984
I884
aI90
aI897
aI104
asg12
I0
sa(dp1985
g5
I0
sg6
S'Unspecified'
p1986
sg8
S'person'
p1987
sg10
(lp1988
I865
aI87
aI876
aI102
asg12
I0
sa(dp1989
g5
I0
sg6
S'Unspecified'
p1990
sg8
S'person'
p1991
sg10
(lp1992
I847
aI91
aI862
aI108
asg12
I0
sa(dp1993
g5
I0
sg6
S'Unspecified'
p1994
sg8
S'person'
p1995
sg10
(lp1996
I840
aI101
aI852
aI115
asg12
I0
sa(dp1997
g5
I0
sg6
S'Unspecified'
p1998
sg8
S'person'
p1999
sg10
(lp2000
I824
aI118
aI840
aI132
asg12
I0
sa(dp2001
g5
I0
sg6
S'Unspecified'
p2002
sg8
S'person'
p2003
sg10
(lp2004
I803
aI96
aI816
aI109
asg12
I0
sa(dp2005
g5
I0
sg6
S'Unspecified'
p2006
sg8
S'person'
p2007
sg10
(lp2008
I812
aI76
aI823
aI89
asg12
I0
sa(dp2009
g5
I0
sg6
S'Unspecified'
p2010
sg8
S'person'
p2011
sg10
(lp2012
I845
aI78
aI855
aI91
asg12
I0
sa(dp2013
g5
I0
sg6
S'Unspecified'
p2014
sg8
S'person'
p2015
sg10
(lp2016
I793
aI84
aI805
aI99
asg12
I0
sa(dp2017
g5
I0
sg6
S'Unspecified'
p2018
sg8
S'person'
p2019
sg10
(lp2020
I780
aI83
aI793
aI96
asg12
I0
sa(dp2021
g5
I0
sg6
S'Unspecified'
p2022
sg8
S'person'
p2023
sg10
(lp2024
I788
aI75
aI800
aI87
asg12
I0
sa(dp2025
g5
I0
sg6
S'Unspecified'
p2026
sg8
S'person'
p2027
sg10
(lp2028
I766
aI75
aI779
aI92
asg12
I0
sa(dp2029
g5
I0
sg6
S'Unspecified'
p2030
sg8
S'person'
p2031
sg10
(lp2032
I745
aI206
aI776
aI242
asg12
I0
sasS'PartA_01843'
p2033
(lp2034
(dp2035
g5
I0
sg6
S'Unspecified'
p2036
sg8
S'person'
p2037
sg10
(lp2038
I21
aI272
aI54
aI309
asg12
I0
sa(dp2039
g5
I0
sg6
S'Unspecified'
p2040
sg8
S'person'
p2041
sg10
(lp2042
I262
aI235
aI286
aI262
asg12
I0
sa(dp2043
g5
I0
sg6
S'Unspecified'
p2044
sg8
S'person'
p2045
sg10
(lp2046
I308
aI229
aI332
aI259
asg12
I0
sa(dp2047
g5
I0
sg6
S'Unspecified'
p2048
sg8
S'person'
p2049
sg10
(lp2050
I345
aI245
aI373
aI276
asg12
I0
sa(dp2051
g5
I0
sg6
S'Unspecified'
p2052
sg8
S'person'
p2053
sg10
(lp2054
I351
aI201
aI375
aI226
asg12
I0
sa(dp2055
g5
I0
sg6
S'Unspecified'
p2056
sg8
S'person'
p2057
sg10
(lp2058
I398
aI237
aI425
aI273
asg12
I0
sa(dp2059
g5
I0
sg6
S'Unspecified'
p2060
sg8
S'person'
p2061
sg10
(lp2062
I433
aI218
aI456
aI243
asg12
I0
sa(dp2063
g5
I0
sg6
S'Unspecified'
p2064
sg8
S'person'
p2065
sg10
(lp2066
I433
aI195
aI452
aI220
asg12
I0
sa(dp2067
g5
I0
sg6
S'Unspecified'
p2068
sg8
S'person'
p2069
sg10
(lp2070
I469
aI220
aI492
aI245
asg12
I0
sa(dp2071
g5
I0
sg6
S'Unspecified'
p2072
sg8
S'person'
p2073
sg10
(lp2074
I490
aI225
aI513
aI251
asg12
I0
sa(dp2075
g5
I0
sg6
S'Unspecified'
p2076
sg8
S'person'
p2077
sg10
(lp2078
I497
aI200
aI519
aI220
asg12
I0
sa(dp2079
g5
I0
sg6
S'Unspecified'
p2080
sg8
S'person'
p2081
sg10
(lp2082
I476
aI168
aI495
aI191
asg12
I0
sa(dp2083
g5
I0
sg6
S'Unspecified'
p2084
sg8
S'person'
p2085
sg10
(lp2086
I508
aI178
aI525
aI197
asg12
I0
sa(dp2087
g5
I0
sg6
S'Unspecified'
p2088
sg8
S'person'
p2089
sg10
(lp2090
I526
aI166
aI542
aI191
asg12
I0
sa(dp2091
g5
I0
sg6
S'Unspecified'
p2092
sg8
S'person'
p2093
sg10
(lp2094
I536
aI183
aI553
aI203
asg12
I0
sa(dp2095
g5
I0
sg6
S'Unspecified'
p2096
sg8
S'person'
p2097
sg10
(lp2098
I531
aI200
aI551
aI225
asg12
I0
sa(dp2099
g5
I0
sg6
S'Unspecified'
p2100
sg8
S'person'
p2101
sg10
(lp2102
I573
aI202
aI594
aI226
asg12
I0
sa(dp2103
g5
I0
sg6
S'Unspecified'
p2104
sg8
S'person'
p2105
sg10
(lp2106
I569
aI159
aI586
aI179
asg12
I0
sa(dp2107
g5
I0
sg6
S'Unspecified'
p2108
sg8
S'person'
p2109
sg10
(lp2110
I603
aI178
aI625
aI202
asg12
I0
sa(dp2111
g5
I0
sg6
S'Unspecified'
p2112
sg8
S'person'
p2113
sg10
(lp2114
I617
aI212
aI641
aI237
asg12
I0
sa(dp2115
g5
I0
sg6
S'Unspecified'
p2116
sg8
S'person'
p2117
sg10
(lp2118
I632
aI201
aI656
aI222
asg12
I0
sa(dp2119
g5
I0
sg6
S'Unspecified'
p2120
sg8
S'person'
p2121
sg10
(lp2122
I554
aI167
aI570
aI187
asg12
I0
sa(dp2123
g5
I0
sg6
S'Unspecified'
p2124
sg8
S'person'
p2125
sg10
(lp2126
I622
aI170
aI636
aI190
asg12
I0
sa(dp2127
g5
I0
sg6
S'Unspecified'
p2128
sg8
S'person'
p2129
sg10
(lp2130
I634
aI162
aI649
aI180
asg12
I0
sa(dp2131
g5
I0
sg6
S'Unspecified'
p2132
sg8
S'person'
p2133
sg10
(lp2134
I646
aI176
aI667
aI198
asg12
I0
sa(dp2135
g5
I0
sg6
S'Unspecified'
p2136
sg8
S'person'
p2137
sg10
(lp2138
I697
aI189
aI719
aI214
asg12
I0
sa(dp2139
g5
I0
sg6
S'Unspecified'
p2140
sg8
S'person'
p2141
sg10
(lp2142
I678
aI145
aI700
aI168
asg12
I0
sa(dp2143
g5
I0
sg6
S'Unspecified'
p2144
sg8
S'person'
p2145
sg10
(lp2146
I698
aI155
aI714
aI175
asg12
I0
sa(dp2147
g5
I0
sg6
S'Unspecified'
p2148
sg8
S'person'
p2149
sg10
(lp2150
I704
aI134
aI720
aI154
asg12
I0
sa(dp2151
g5
I0
sg6
S'Unspecified'
p2152
sg8
S'person'
p2153
sg10
(lp2154
I695
aI175
aI717
aI195
asg12
I0
sa(dp2155
g5
I0
sg6
S'Unspecified'
p2156
sg8
S'person'
p2157
sg10
(lp2158
I729
aI158
aI750
aI181
asg12
I0
sa(dp2159
g5
I0
sg6
S'Unspecified'
p2160
sg8
S'person'
p2161
sg10
(lp2162
I740
aI146
aI759
aI170
asg12
I0
sa(dp2163
g5
I0
sg6
S'Unspecified'
p2164
sg8
S'person'
p2165
sg10
(lp2166
I748
aI136
aI765
aI153
asg12
I0
sa(dp2167
g5
I0
sg6
S'Unspecified'
p2168
sg8
S'person'
p2169
sg10
(lp2170
I769
aI139
aI786
aI159
asg12
I0
sa(dp2171
g5
I0
sg6
S'Unspecified'
p2172
sg8
S'person'
p2173
sg10
(lp2174
I765
aI156
aI782
aI175
asg12
I0
sa(dp2175
g5
I0
sg6
S'Unspecified'
p2176
sg8
S'person'
p2177
sg10
(lp2178
I773
aI173
aI792
aI190
asg12
I0
sa(dp2179
g5
I0
sg6
S'Unspecified'
p2180
sg8
S'person'
p2181
sg10
(lp2182
I806
aI147
aI822
aI163
asg12
I0
sa(dp2183
g5
I0
sg6
S'Unspecified'
p2184
sg8
S'person'
p2185
sg10
(lp2186
I822
aI152
aI837
aI175
asg12
I0
sa(dp2187
g5
I0
sg6
S'Unspecified'
p2188
sg8
S'person'
p2189
sg10
(lp2190
I838
aI151
aI852
aI169
asg12
I0
sa(dp2191
g5
I0
sg6
S'Unspecified'
p2192
sg8
S'person'
p2193
sg10
(lp2194
I856
aI162
aI879
aI189
asg12
I0
sa(dp2195
g5
I0
sg6
S'Unspecified'
p2196
sg8
S'person'
p2197
sg10
(lp2198
I811
aI179
aI831
aI204
asg12
I0
sa(dp2199
g5
I0
sg6
S'Unspecified'
p2200
sg8
S'person'
p2201
sg10
(lp2202
I773
aI194
aI796
aI219
asg12
I0
sa(dp2203
g5
I0
sg6
S'Unspecified'
p2204
sg8
S'person'
p2205
sg10
(lp2206
I726
aI213
aI753
aI244
asg12
I0
sa(dp2207
g5
I0
sg6
S'Unspecified'
p2208
sg8
S'person'
p2209
sg10
(lp2210
I642
aI237
aI675
aI272
asg12
I0
sa(dp2211
g5
I0
sg6
S'Unspecified'
p2212
sg8
S'person'
p2213
sg10
(lp2214
I650
aI267
aI686
aI308
asg12
I0
sa(dp2215
g5
I0
sg6
S'Unspecified'
p2216
sg8
S'person'
p2217
sg10
(lp2218
I544
aI271
aI582
aI315
asg12
I0
sa(dp2219
g5
I0
sg6
S'Unspecified'
p2220
sg8
S'person'
p2221
sg10
(lp2222
I534
aI237
aI561
aI269
asg12
I0
sa(dp2223
g5
I0
sg6
S'Unspecified'
p2224
sg8
S'person'
p2225
sg10
(lp2226
I735
aI278
aI772
aI322
asg12
I0
sa(dp2227
g5
I0
sg6
S'Unspecified'
p2228
sg8
S'person'
p2229
sg10
(lp2230
I723
aI250
aI756
aI284
asg12
I0
sa(dp2231
g5
I0
sg6
S'Unspecified'
p2232
sg8
S'person'
p2233
sg10
(lp2234
I787
aI221
aI815
aI254
asg12
I0
sa(dp2235
g5
I0
sg6
S'Unspecified'
p2236
sg8
S'person'
p2237
sg10
(lp2238
I833
aI217
aI856
aI246
asg12
I0
sa(dp2239
g5
I0
sg6
S'Unspecified'
p2240
sg8
S'person'
p2241
sg10
(lp2242
I831
aI238
aI861
aI273
asg12
I0
sa(dp2243
g5
I0
sg6
S'Unspecified'
p2244
sg8
S'person'
p2245
sg10
(lp2246
I796
aI256
aI831
aI300
asg12
I0
sa(dp2247
g5
I0
sg6
S'Unspecified'
p2248
sg8
S'person'
p2249
sg10
(lp2250
I800
aI301
aI840
aI350
asg12
I0
sa(dp2251
g5
I0
sg6
S'Unspecified'
p2252
sg8
S'person'
p2253
sg10
(lp2254
I857
aI333
aI905
aI387
asg12
I0
sa(dp2255
g5
I0
sg6
S'Unspecified'
p2256
sg8
S'person'
p2257
sg10
(lp2258
I886
aI265
aI922
aI298
asg12
I0
sa(dp2259
g5
I0
sg6
S'Unspecified'
p2260
sg8
S'person'
p2261
sg10
(lp2262
I883
aI188
aI901
aI214
asg12
I0
sa(dp2263
g5
I0
sg6
S'Unspecified'
p2264
sg8
S'person'
p2265
sg10
(lp2266
I890
aI183
aI913
aI207
asg12
I0
sa(dp2267
g5
I0
sg6
S'Unspecified'
p2268
sg8
S'person'
p2269
sg10
(lp2270
I911
aI164
aI926
aI182
asg12
I0
sa(dp2271
g5
I0
sg6
S'Unspecified'
p2272
sg8
S'person'
p2273
sg10
(lp2274
I912
aI144
aI928
aI167
asg12
I0
sa(dp2275
g5
I0
sg6
S'Unspecified'
p2276
sg8
S'person'
p2277
sg10
(lp2278
I931
aI186
aI950
aI213
asg12
I0
sa(dp2279
g5
I0
sg6
S'Unspecified'
p2280
sg8
S'person'
p2281
sg10
(lp2282
I944
aI175
aI965
aI200
asg12
I0
sa(dp2283
g5
I0
sg6
S'Unspecified'
p2284
sg8
S'person'
p2285
sg10
(lp2286
I950
aI161
aI967
aI181
asg12
I0
sa(dp2287
g5
I0
sg6
S'Unspecified'
p2288
sg8
S'person'
p2289
sg10
(lp2290
I984
aI162
aI1003
aI186
asg12
I0
sa(dp2291
g5
I0
sg6
S'Unspecified'
p2292
sg8
S'person'
p2293
sg10
(lp2294
I989
aI197
aI1006
aI223
asg12
I0
sa(dp2295
g5
I0
sg6
S'Unspecified'
p2296
sg8
S'person'
p2297
sg10
(lp2298
I996
aI186
aI1015
aI208
asg12
I0
sa(dp2299
g5
I0
sg6
S'Unspecified'
p2300
sg8
S'person'
p2301
sg10
(lp2302
I1022
aI168
aI1039
aI194
asg12
I0
sa(dp2303
g5
I0
sg6
S'Unspecified'
p2304
sg8
S'person'
p2305
sg10
(lp2306
I1007
aI219
aI1028
aI252
asg12
I0
sa(dp2307
g5
I0
sg6
S'Unspecified'
p2308
sg8
S'person'
p2309
sg10
(lp2310
I983
aI237
aI1012
aI273
asg12
I0
sa(dp2311
g5
I0
sg6
S'Unspecified'
p2312
sg8
S'person'
p2313
sg10
(lp2314
I957
aI292
aI991
aI330
asg12
I0
sa(dp2315
g5
I0
sg6
S'Unspecified'
p2316
sg8
S'person'
p2317
sg10
(lp2318
I974
aI356
aI1024
aI418
asg12
I0
sa(dp2319
g5
I0
sg6
S'Unspecified'
p2320
sg8
S'person'
p2321
sg10
(lp2322
I1020
aI284
aI1057
aI326
asg12
I0
sa(dp2323
g5
I0
sg6
S'Unspecified'
p2324
sg8
S'person'
p2325
sg10
(lp2326
I1096
aI297
aI1133
aI341
asg12
I0
sa(dp2327
g5
I0
sg6
S'Unspecified'
p2328
sg8
S'person'
p2329
sg10
(lp2330
I1111
aI265
aI1138
aI306
asg12
I0
sa(dp2331
g5
I0
sg6
S'Unspecified'
p2332
sg8
S'person'
p2333
sg10
(lp2334
I1114
aI234
aI1138
aI262
asg12
I0
sa(dp2335
g5
I0
sg6
S'Unspecified'
p2336
sg8
S'person'
p2337
sg10
(lp2338
I1120
aI214
aI1144
aI242
asg12
I0
sa(dp2339
g5
I0
sg6
S'Unspecified'
p2340
sg8
S'person'
p2341
sg10
(lp2342
I1136
aI208
aI1153
aI231
asg12
I0
sa(dp2343
g5
I0
sg6
S'Unspecified'
p2344
sg8
S'person'
p2345
sg10
(lp2346
I1135
aI188
aI1154
aI212
asg12
I0
sa(dp2347
g5
I0
sg6
S'Unspecified'
p2348
sg8
S'person'
p2349
sg10
(lp2350
I1090
aI187
aI1113
aI215
asg12
I0
sa(dp2351
g5
I0
sg6
S'Unspecified'
p2352
sg8
S'person'
p2353
sg10
(lp2354
I1056
aI227
aI1085
aI256
asg12
I0
sa(dp2355
g5
I0
sg6
S'Unspecified'
p2356
sg8
S'person'
p2357
sg10
(lp2358
I1042
aI247
aI1068
aI281
asg12
I0
sa(dp2359
g5
I0
sg6
S'Unspecified'
p2360
sg8
S'person'
p2361
sg10
(lp2362
I1044
aI188
aI1070
aI214
asg12
I0
sa(dp2363
g5
I0
sg6
S'Unspecified'
p2364
sg8
S'person'
p2365
sg10
(lp2366
I1045
aI170
aI1064
aI187
asg12
I0
sa(dp2367
g5
I0
sg6
S'Unspecified'
p2368
sg8
S'person'
p2369
sg10
(lp2370
I1064
aI167
aI1082
aI187
asg12
I0
sasS'PartA_01279'
p2371
(lp2372
(dp2373
g5
I0
sg6
S'Unspecified'
p2374
sg8
S'person'
p2375
sg10
(lp2376
I1014
aI265
aI1044
aI314
asg12
I0
sa(dp2377
g5
I0
sg6
S'Unspecified'
p2378
sg8
S'person'
p2379
sg10
(lp2380
I1089
aI98
aI1102
aI117
asg12
I0
sa(dp2381
g5
I0
sg6
S'Unspecified'
p2382
sg8
S'person'
p2383
sg10
(lp2384
I1129
aI111
aI1143
aI125
asg12
I0
sa(dp2385
g5
I0
sg6
S'Unspecified'
p2386
sg8
S'person'
p2387
sg10
(lp2388
I578
aI110
aI598
aI128
asg12
I0
sasS'PartA_00994'
p2389
(lp2390
(dp2391
g5
I0
sg6
S'Unspecified'
p2392
sg8
S'person'
p2393
sg10
(lp2394
I296
aI88
aI313
aI113
asg12
I0
sa(dp2395
g5
I0
sg6
S'Unspecified'
p2396
sg8
S'person'
p2397
sg10
(lp2398
I398
aI116
aI414
aI138
asg12
I0
sa(dp2399
g5
I0
sg6
S'Unspecified'
p2400
sg8
S'person'
p2401
sg10
(lp2402
I415
aI90
aI437
aI117
asg12
I0
sa(dp2403
g5
I0
sg6
S'Unspecified'
p2404
sg8
S'person'
p2405
sg10
(lp2406
I473
aI64
aI485
aI76
asg12
I0
sa(dp2407
g5
I0
sg6
S'Unspecified'
p2408
sg8
S'person'
p2409
sg10
(lp2410
I466
aI103
aI483
aI125
asg12
I0
sa(dp2411
g5
I0
sg6
S'Unspecified'
p2412
sg8
S'person'
p2413
sg10
(lp2414
I546
aI120
aI563
aI141
asg12
I0
sa(dp2415
g5
I0
sg6
S'Unspecified'
p2416
sg8
S'person'
p2417
sg10
(lp2418
I586
aI111
aI606
aI143
asg12
I0
sa(dp2419
g5
I0
sg6
S'Unspecified'
p2420
sg8
S'person'
p2421
sg10
(lp2422
I530
aI55
aI546
aI69
asg12
I0
sa(dp2423
g5
I0
sg6
S'Unspecified'
p2424
sg8
S'person'
p2425
sg10
(lp2426
I607
aI50
aI620
aI64
asg12
I0
sa(dp2427
g5
I0
sg6
S'Unspecified'
p2428
sg8
S'person'
p2429
sg10
(lp2430
I400
aI97
aI416
aI120
asg12
I0
sasS'PartA_00043'
p2431
(lp2432
(dp2433
g5
I0
sg6
S'Unspecified'
p2434
sg8
S'person'
p2435
sg10
(lp2436
I741
aI78
aI756
aI98
asg12
I0
sasS'part2_001887'
p2437
(lp2438
(dp2439
g5
I0
sg6
S'Unspecified'
p2440
sg8
S'hat'
p2441
sg10
(lp2442
I37
aI1
aI232
aI216
asg12
I1
sasS'PartA_01374'
p2443
(lp2444
(dp2445
g5
I0
sg6
S'Unspecified'
p2446
sg8
S'person'
p2447
sg10
(lp2448
I764
aI46
aI777
aI61
asg12
I0
sa(dp2449
g5
I0
sg6
S'Unspecified'
p2450
sg8
S'person'
p2451
sg10
(lp2452
I334
aI126
aI358
aI149
asg12
I0
sasS'PartB_00257'
p2453
(lp2454
(dp2455
g5
I0
sg6
S'Unspecified'
p2456
sg8
S'person'
p2457
sg10
(lp2458
I1
aI38
aI74
aI143
asg12
I1
sa(dp2459
g5
I0
sg6
S'Unspecified'
p2460
sg8
S'person'
p2461
sg10
(lp2462
I2
aI188
aI129
aI345
asg12
I0
sa(dp2463
g5
I0
sg6
S'Unspecified'
p2464
sg8
S'person'
p2465
sg10
(lp2466
I101
aI12
aI170
aI111
asg12
I0
sa(dp2467
g5
I0
sg6
S'Unspecified'
p2468
sg8
S'person'
p2469
sg10
(lp2470
I189
aI4
aI242
aI74
asg12
I0
sa(dp2471
g5
I0
sg6
S'Unspecified'
p2472
sg8
S'person'
p2473
sg10
(lp2474
I330
aI50
aI434
aI195
asg12
I0
sa(dp2475
g5
I0
sg6
S'Unspecified'
p2476
sg8
S'person'
p2477
sg10
(lp2478
I338
aI4
aI408
aI68
asg12
I0
sasS'PartB_00460'
p2479
(lp2480
(dp2481
g5
I0
sg6
S'Unspecified'
p2482
sg8
S'person'
p2483
sg10
(lp2484
I1
aI300
aI70
aI389
asg12
I1
sa(dp2485
g5
I0
sg6
S'Unspecified'
p2486
sg8
S'person'
p2487
sg10
(lp2488
I70
aI268
aI135
aI343
asg12
I0
sa(dp2489
g5
I0
sg6
S'Unspecified'
p2490
sg8
S'person'
p2491
sg10
(lp2492
I22
aI256
aI52
aI299
asg12
I0
sa(dp2493
g5
I0
sg6
S'Unspecified'
p2494
sg8
S'person'
p2495
sg10
(lp2496
I149
aI300
aI227
aI392
asg12
I0
sa(dp2497
g5
I0
sg6
S'Unspecified'
p2498
sg8
S'person'
p2499
sg10
(lp2500
I212
aI289
aI255
aI333
asg12
I0
sa(dp2501
g5
I0
sg6
S'Unspecified'
p2502
sg8
S'person'
p2503
sg10
(lp2504
I188
aI256
aI224
aI296
asg12
I0
sa(dp2505
g5
I0
sg6
S'Unspecified'
p2506
sg8
S'person'
p2507
sg10
(lp2508
I232
aI230
aI252
aI253
asg12
I0
sa(dp2509
g5
I0
sg6
S'Unspecified'
p2510
sg8
S'person'
p2511
sg10
(lp2512
I147
aI223
aI166
aI249
asg12
I0
sa(dp2513
g5
I0
sg6
S'Unspecified'
p2514
sg8
S'person'
p2515
sg10
(lp2516
I301
aI263
aI332
aI297
asg12
I0
sa(dp2517
g5
I0
sg6
S'Unspecified'
p2518
sg8
S'person'
p2519
sg10
(lp2520
I265
aI259
aI288
aI289
asg12
I0
sa(dp2521
g5
I0
sg6
S'Unspecified'
p2522
sg8
S'person'
p2523
sg10
(lp2524
I282
aI249
aI303
aI277
asg12
I0
sa(dp2525
g5
I0
sg6
S'Unspecified'
p2526
sg8
S'person'
p2527
sg10
(lp2528
I244
aI252
aI263
aI279
asg12
I0
sa(dp2529
g5
I0
sg6
S'Unspecified'
p2530
sg8
S'person'
p2531
sg10
(lp2532
I229
aI256
aI250
aI286
asg12
I0
sa(dp2533
g5
I0
sg6
S'Unspecified'
p2534
sg8
S'person'
p2535
sg10
(lp2536
I161
aI268
aI187
aI289
asg12
I0
sa(dp2537
g5
I0
sg6
S'Unspecified'
p2538
sg8
S'person'
p2539
sg10
(lp2540
I375
aI283
aI414
aI326
asg12
I0
sa(dp2541
g5
I0
sg6
S'Unspecified'
p2542
sg8
S'person'
p2543
sg10
(lp2544
I332
aI268
aI351
aI295
asg12
I0
sa(dp2545
g5
I0
sg6
S'Unspecified'
p2546
sg8
S'person'
p2547
sg10
(lp2548
I324
aI228
aI345
aI251
asg12
I0
sa(dp2549
g5
I0
sg6
S'Unspecified'
p2550
sg8
S'person'
p2551
sg10
(lp2552
I356
aI218
aI370
aI245
asg12
I0
sa(dp2553
g5
I0
sg6
S'Unspecified'
p2554
sg8
S'person'
p2555
sg10
(lp2556
I358
aI249
aI376
aI271
asg12
I0
sa(dp2557
g5
I0
sg6
S'Unspecified'
p2558
sg8
S'person'
p2559
sg10
(lp2560
I385
aI251
aI411
aI273
asg12
I0
sa(dp2561
g5
I0
sg6
S'Unspecified'
p2562
sg8
S'person'
p2563
sg10
(lp2564
I429
aI248
aI449
aI268
asg12
I0
sa(dp2565
g5
I0
sg6
S'Unspecified'
p2566
sg8
S'person'
p2567
sg10
(lp2568
I417
aI253
aI429
aI274
asg12
I0
sa(dp2569
g5
I0
sg6
S'Unspecified'
p2570
sg8
S'person'
p2571
sg10
(lp2572
I448
aI225
aI462
aI248
asg12
I0
sa(dp2573
g5
I0
sg6
S'Unspecified'
p2574
sg8
S'person'
p2575
sg10
(lp2576
I642
aI305
aI718
aI386
asg12
I0
sa(dp2577
g5
I0
sg6
S'Unspecified'
p2578
sg8
S'person'
p2579
sg10
(lp2580
I819
aI357
aI994
aI553
asg12
I0
sa(dp2581
g5
I0
sg6
S'Unspecified'
p2582
sg8
S'person'
p2583
sg10
(lp2584
I811
aI305
aI884
aI374
asg12
I0
sa(dp2585
g5
I0
sg6
S'Unspecified'
p2586
sg8
S'person'
p2587
sg10
(lp2588
I753
aI268
aI790
aI312
asg12
I0
sa(dp2589
g5
I0
sg6
S'Unspecified'
p2590
sg8
S'person'
p2591
sg10
(lp2592
I703
aI276
aI750
aI316
asg12
I0
sa(dp2593
g5
I0
sg6
S'Unspecified'
p2594
sg8
S'person'
p2595
sg10
(lp2596
I703
aI252
aI729
aI284
asg12
I0
sa(dp2597
g5
I0
sg6
S'Unspecified'
p2598
sg8
S'person'
p2599
sg10
(lp2600
I704
aI218
aI727
aI247
asg12
I0
sa(dp2601
g5
I0
sg6
S'Unspecified'
p2602
sg8
S'person'
p2603
sg10
(lp2604
I738
aI250
aI757
aI274
asg12
I0
sa(dp2605
g5
I0
sg6
S'Unspecified'
p2606
sg8
S'person'
p2607
sg10
(lp2608
I733
aI249
aI747
aI262
asg12
I0
sa(dp2609
g5
I0
sg6
S'Unspecified'
p2610
sg8
S'person'
p2611
sg10
(lp2612
I760
aI221
aI783
aI248
asg12
I0
sa(dp2613
g5
I0
sg6
S'Unspecified'
p2614
sg8
S'person'
p2615
sg10
(lp2616
I794
aI262
aI824
aI300
asg12
I0
sa(dp2617
g5
I0
sg6
S'Unspecified'
p2618
sg8
S'person'
p2619
sg10
(lp2620
I829
aI251
aI849
aI282
asg12
I0
sa(dp2621
g5
I0
sg6
S'Unspecified'
p2622
sg8
S'person'
p2623
sg10
(lp2624
I872
aI259
aI891
aI286
asg12
I0
sa(dp2625
g5
I0
sg6
S'Unspecified'
p2626
sg8
S'person'
p2627
sg10
(lp2628
I912
aI255
aI935
aI288
asg12
I0
sa(dp2629
g5
I0
sg6
S'Unspecified'
p2630
sg8
S'person'
p2631
sg10
(lp2632
I929
aI280
aI993
aI345
asg12
I0
sa(dp2633
g5
I0
sg6
S'Unspecified'
p2634
sg8
S'person'
p2635
sg10
(lp2636
I856
aI289
aI906
aI338
asg12
I0
sa(dp2637
g5
I0
sg6
S'Unspecified'
p2638
sg8
S'person'
p2639
sg10
(lp2640
I655
aI258
aI678
aI277
asg12
I0
sa(dp2641
g5
I0
sg6
S'Unspecified'
p2642
sg8
S'person'
p2643
sg10
(lp2644
I628
aI262
aI659
aI295
asg12
I0
sa(dp2645
g5
I0
sg6
S'Unspecified'
p2646
sg8
S'person'
p2647
sg10
(lp2648
I576
aI285
aI628
aI333
asg12
I0
sa(dp2649
g5
I0
sg6
S'Unspecified'
p2650
sg8
S'person'
p2651
sg10
(lp2652
I558
aI272
aI597
aI308
asg12
I0
sa(dp2653
g5
I0
sg6
S'Unspecified'
p2654
sg8
S'person'
p2655
sg10
(lp2656
I552
aI262
aI578
aI292
asg12
I0
sa(dp2657
g5
I0
sg6
S'Unspecified'
p2658
sg8
S'person'
p2659
sg10
(lp2660
I542
aI251
aI567
aI274
asg12
I0
sa(dp2661
g5
I0
sg6
S'Unspecified'
p2662
sg8
S'person'
p2663
sg10
(lp2664
I529
aI256
aI544
aI271
asg12
I0
sa(dp2665
g5
I0
sg6
S'Unspecified'
p2666
sg8
S'person'
p2667
sg10
(lp2668
I522
aI257
aI535
aI273
asg12
I0
sa(dp2669
g5
I0
sg6
S'Unspecified'
p2670
sg8
S'person'
p2671
sg10
(lp2672
I599
aI248
aI622
aI280
asg12
I0
sa(dp2673
g5
I0
sg6
S'Unspecified'
p2674
sg8
S'person'
p2675
sg10
(lp2676
I587
aI253
aI605
aI275
asg12
I0
sa(dp2677
g5
I0
sg6
S'Unspecified'
p2678
sg8
S'person'
p2679
sg10
(lp2680
I667
aI250
aI685
aI267
asg12
I0
sa(dp2681
g5
I0
sg6
S'Unspecified'
p2682
sg8
S'person'
p2683
sg10
(lp2684
I682
aI243
aI697
aI262
asg12
I0
sa(dp2685
g5
I0
sg6
S'Unspecified'
p2686
sg8
S'person'
p2687
sg10
(lp2688
I646
aI248
aI663
aI268
asg12
I0
sasS'PartB_00552'
p2689
(lp2690
(dp2691
g5
I0
sg6
S'Unspecified'
p2692
sg8
S'person'
p2693
sg10
(lp2694
I8
aI108
aI111
aI264
asg12
I0
sa(dp2695
g5
I0
sg6
S'Unspecified'
p2696
sg8
S'person'
p2697
sg10
(lp2698
I124
aI148
aI297
aI369
asg12
I0
sa(dp2699
g5
I0
sg6
S'Unspecified'
p2700
sg8
S'person'
p2701
sg10
(lp2702
I190
aI102
aI251
aI189
asg12
I0
sa(dp2703
g5
I0
sg6
S'Unspecified'
p2704
sg8
S'person'
p2705
sg10
(lp2706
I302
aI101
aI374
aI213
asg12
I0
sa(dp2707
g5
I0
sg6
S'Unspecified'
p2708
sg8
S'person'
p2709
sg10
(lp2710
I336
aI136
aI430
aI249
asg12
I0
sa(dp2711
g5
I0
sg6
S'Unspecified'
p2712
sg8
S'person'
p2713
sg10
(lp2714
I392
aI112
aI550
aI311
asg12
I0
sa(dp2715
g5
I0
sg6
S'Unspecified'
p2716
sg8
S'person'
p2717
sg10
(lp2718
I401
aI71
aI478
aI174
asg12
I0
sa(dp2719
g5
I0
sg6
S'Unspecified'
p2720
sg8
S'person'
p2721
sg10
(lp2722
I622
aI95
aI704
aI203
asg12
I0
sa(dp2723
g5
I0
sg6
S'Unspecified'
p2724
sg8
S'person'
p2725
sg10
(lp2726
I721
aI96
aI797
aI192
asg12
I0
sasS'PartB_02199'
p2727
(lp2728
(dp2729
g5
I0
sg6
S'Unspecified'
p2730
sg8
S'person'
p2731
sg10
(lp2732
I109
aI146
aI119
aI154
asg12
I0
sa(dp2733
g5
I0
sg6
S'Unspecified'
p2734
sg8
S'person'
p2735
sg10
(lp2736
I272
aI165
aI291
aI188
asg12
I0
sa(dp2737
g5
I0
sg6
S'Unspecified'
p2738
sg8
S'person'
p2739
sg10
(lp2740
I352
aI169
aI380
aI203
asg12
I0
sa(dp2741
g5
I0
sg6
S'Unspecified'
p2742
sg8
S'person'
p2743
sg10
(lp2744
I409
aI198
aI470
aI252
asg12
I0
sa(dp2745
g5
I0
sg6
S'Unspecified'
p2746
sg8
S'person'
p2747
sg10
(lp2748
I410
aI156
aI434
aI177
asg12
I0
sa(dp2749
g5
I0
sg6
S'Unspecified'
p2750
sg8
S'person'
p2751
sg10
(lp2752
I399
aI153
aI416
aI171
asg12
I0
sa(dp2753
g5
I0
sg6
S'Unspecified'
p2754
sg8
S'person'
p2755
sg10
(lp2756
I405
aI145
aI420
aI159
asg12
I0
sa(dp2757
g5
I0
sg6
S'Unspecified'
p2758
sg8
S'person'
p2759
sg10
(lp2760
I440
aI145
aI456
aI159
asg12
I0
sa(dp2761
g5
I0
sg6
S'Unspecified'
p2762
sg8
S'person'
p2763
sg10
(lp2764
I471
aI153
aI500
aI184
asg12
I1
sa(dp2765
g5
I0
sg6
S'Unspecified'
p2766
sg8
S'person'
p2767
sg10
(lp2768
I373
aI147
aI385
aI159
asg12
I0
sa(dp2769
g5
I0
sg6
S'Unspecified'
p2770
sg8
S'person'
p2771
sg10
(lp2772
I347
aI149
aI363
aI169
asg12
I0
sa(dp2773
g5
I0
sg6
S'Unspecified'
p2774
sg8
S'person'
p2775
sg10
(lp2776
I331
aI154
aI341
aI166
asg12
I0
sa(dp2777
g5
I0
sg6
S'Unspecified'
p2778
sg8
S'person'
p2779
sg10
(lp2780
I336
aI146
aI349
aI160
asg12
I0
sa(dp2781
g5
I0
sg6
S'Unspecified'
p2782
sg8
S'person'
p2783
sg10
(lp2784
I327
aI151
aI337
aI163
asg12
I0
sa(dp2785
g5
I0
sg6
S'Unspecified'
p2786
sg8
S'person'
p2787
sg10
(lp2788
I308
aI150
aI318
aI161
asg12
I0
sa(dp2789
g5
I0
sg6
S'Unspecified'
p2790
sg8
S'person'
p2791
sg10
(lp2792
I270
aI153
aI282
aI167
asg12
I0
sa(dp2793
g5
I0
sg6
S'Unspecified'
p2794
sg8
S'person'
p2795
sg10
(lp2796
I269
aI149
aI278
aI157
asg12
I0
sa(dp2797
g5
I0
sg6
S'Unspecified'
p2798
sg8
S'person'
p2799
sg10
(lp2800
I280
aI147
aI284
aI153
asg12
I0
sa(dp2801
g5
I0
sg6
S'Unspecified'
p2802
sg8
S'person'
p2803
sg10
(lp2804
I241
aI150
aI248
aI157
asg12
I0
sa(dp2805
g5
I0
sg6
S'Unspecified'
p2806
sg8
S'person'
p2807
sg10
(lp2808
I225
aI151
aI231
aI157
asg12
I0
sa(dp2809
g5
I0
sg6
S'Unspecified'
p2810
sg8
S'person'
p2811
sg10
(lp2812
I222
aI149
aI227
aI155
asg12
I0
sa(dp2813
g5
I0
sg6
S'Unspecified'
p2814
sg8
S'person'
p2815
sg10
(lp2816
I207
aI152
aI219
aI162
asg12
I0
sa(dp2817
g5
I0
sg6
S'Unspecified'
p2818
sg8
S'person'
p2819
sg10
(lp2820
I193
aI155
aI201
aI162
asg12
I0
sa(dp2821
g5
I0
sg6
S'Unspecified'
p2822
sg8
S'person'
p2823
sg10
(lp2824
I185
aI153
aI191
aI160
asg12
I0
sa(dp2825
g5
I0
sg6
S'Unspecified'
p2826
sg8
S'person'
p2827
sg10
(lp2828
I175
aI155
aI181
aI161
asg12
I0
sa(dp2829
g5
I0
sg6
S'Unspecified'
p2830
sg8
S'person'
p2831
sg10
(lp2832
I153
aI155
aI161
aI162
asg12
I0
sasS'PartB_01486'
p2833
(lp2834
(dp2835
g5
I0
sg6
S'Unspecified'
p2836
sg8
S'person'
p2837
sg10
(lp2838
I20
aI897
aI232
aI1132
asg12
I0
sa(dp2839
g5
I0
sg6
S'Unspecified'
p2840
sg8
S'person'
p2841
sg10
(lp2842
I301
aI994
aI542
aI1219
asg12
I0
sa(dp2843
g5
I0
sg6
S'Unspecified'
p2844
sg8
S'person'
p2845
sg10
(lp2846
I642
aI529
aI1048
aI988
asg12
I0
sa(dp2847
g5
I0
sg6
S'Unspecified'
p2848
sg8
S'person'
p2849
sg10
(lp2850
I1670
aI1078
aI1976
aI1438
asg12
I0
sa(dp2851
g5
I0
sg6
S'Unspecified'
p2852
sg8
S'person'
p2853
sg10
(lp2854
I1742
aI1326
aI2220
aI1885
asg12
I0
sa(dp2855
g5
I0
sg6
S'Unspecified'
p2856
sg8
S'person'
p2857
sg10
(lp2858
I2382
aI1041
aI2717
aI1451
asg12
I0
sa(dp2859
g5
I0
sg6
S'Unspecified'
p2860
sg8
S'person'
p2861
sg10
(lp2862
I2729
aI1326
aI3154
aI1763
asg12
I0
sa(dp2863
g5
I0
sg6
S'Unspecified'
p2864
sg8
S'person'
p2865
sg10
(lp2866
I3173
aI1038
aI3545
aI1472
asg12
I0
sa(dp2867
g5
I0
sg6
S'Unspecified'
p2868
sg8
S'person'
p2869
sg10
(lp2870
I3448
aI1138
aI3920
aI1604
asg12
I0
sa(dp2871
g5
I0
sg6
S'Unspecified'
p2872
sg8
S'person'
p2873
sg10
(lp2874
I3870
aI907
aI4107
aI1210
asg12
I0
sa(dp2875
g5
I0
sg6
S'Unspecified'
p2876
sg8
S'person'
p2877
sg10
(lp2878
I4017
aI866
aI4160
aI1155
asg12
I1
sasS'PartA_01979'
p2879
(lp2880
(dp2881
g5
I0
sg6
S'Unspecified'
p2882
sg8
S'person'
p2883
sg10
(lp2884
I73
aI265
aI129
aI327
asg12
I0
sa(dp2885
g5
I0
sg6
S'Unspecified'
p2886
sg8
S'person'
p2887
sg10
(lp2888
I283
aI118
aI301
aI140
asg12
I0
sa(dp2889
g5
I0
sg6
S'Unspecified'
p2890
sg8
S'person'
p2891
sg10
(lp2892
I305
aI123
aI324
aI144
asg12
I0
sa(dp2893
g5
I0
sg6
S'Unspecified'
p2894
sg8
S'person'
p2895
sg10
(lp2896
I332
aI129
aI349
aI150
asg12
I0
sa(dp2897
g5
I0
sg6
S'Unspecified'
p2898
sg8
S'person'
p2899
sg10
(lp2900
I350
aI103
aI368
aI123
asg12
I0
sa(dp2901
g5
I0
sg6
S'Unspecified'
p2902
sg8
S'person'
p2903
sg10
(lp2904
I356
aI95
aI375
aI114
asg12
I0
sa(dp2905
g5
I0
sg6
S'Unspecified'
p2906
sg8
S'person'
p2907
sg10
(lp2908
I383
aI102
aI399
aI123
asg12
I0
sa(dp2909
g5
I0
sg6
S'Unspecified'
p2910
sg8
S'person'
p2911
sg10
(lp2912
I395
aI100
aI417
aI126
asg12
I0
sa(dp2913
g5
I0
sg6
S'Unspecified'
p2914
sg8
S'person'
p2915
sg10
(lp2916
I383
aI128
aI405
aI153
asg12
I0
sa(dp2917
g5
I0
sg6
S'Unspecified'
p2918
sg8
S'person'
p2919
sg10
(lp2920
I429
aI120
aI453
aI150
asg12
I0
sa(dp2921
g5
I0
sg6
S'Unspecified'
p2922
sg8
S'person'
p2923
sg10
(lp2924
I419
aI97
aI439
aI122
asg12
I0
sa(dp2925
g5
I0
sg6
S'Unspecified'
p2926
sg8
S'person'
p2927
sg10
(lp2928
I457
aI116
aI479
aI142
asg12
I0
sa(dp2929
g5
I0
sg6
S'Unspecified'
p2930
sg8
S'person'
p2931
sg10
(lp2932
I484
aI112
aI510
aI142
asg12
I0
sa(dp2933
g5
I0
sg6
S'Unspecified'
p2934
sg8
S'person'
p2935
sg10
(lp2936
I493
aI100
aI514
aI118
asg12
I0
sa(dp2937
g5
I0
sg6
S'Unspecified'
p2938
sg8
S'person'
p2939
sg10
(lp2940
I517
aI97
aI534
aI120
asg12
I0
sa(dp2941
g5
I0
sg6
S'Unspecified'
p2942
sg8
S'person'
p2943
sg10
(lp2944
I450
aI87
aI471
aI112
asg12
I0
sa(dp2945
g5
I0
sg6
S'Unspecified'
p2946
sg8
S'person'
p2947
sg10
(lp2948
I432
aI73
aI445
aI93
asg12
I0
sa(dp2949
g5
I0
sg6
S'Unspecified'
p2950
sg8
S'person'
p2951
sg10
(lp2952
I469
aI78
aI486
aI98
asg12
I0
sa(dp2953
g5
I0
sg6
S'Unspecified'
p2954
sg8
S'person'
p2955
sg10
(lp2956
I480
aI83
aI495
aI102
asg12
I0
sa(dp2957
g5
I0
sg6
S'Unspecified'
p2958
sg8
S'person'
p2959
sg10
(lp2960
I480
aI69
aI497
aI83
asg12
I0
sa(dp2961
g5
I0
sg6
S'Unspecified'
p2962
sg8
S'person'
p2963
sg10
(lp2964
I504
aI69
aI516
aI85
asg12
I0
sa(dp2965
g5
I0
sg6
S'Unspecified'
p2966
sg8
S'person'
p2967
sg10
(lp2968
I515
aI64
aI529
aI79
asg12
I0
sa(dp2969
g5
I0
sg6
S'Unspecified'
p2970
sg8
S'person'
p2971
sg10
(lp2972
I523
aI70
aI538
aI91
asg12
I0
sa(dp2973
g5
I0
sg6
S'Unspecified'
p2974
sg8
S'person'
p2975
sg10
(lp2976
I540
aI62
aI552
aI79
asg12
I0
sa(dp2977
g5
I0
sg6
S'Unspecified'
p2978
sg8
S'person'
p2979
sg10
(lp2980
I539
aI84
aI555
aI103
asg12
I0
sa(dp2981
g5
I0
sg6
S'Unspecified'
p2982
sg8
S'person'
p2983
sg10
(lp2984
I565
aI82
aI582
aI100
asg12
I0
sa(dp2985
g5
I0
sg6
S'Unspecified'
p2986
sg8
S'person'
p2987
sg10
(lp2988
I560
aI75
aI576
aI90
asg12
I0
sa(dp2989
g5
I0
sg6
S'Unspecified'
p2990
sg8
S'person'
p2991
sg10
(lp2992
I568
aI62
aI581
aI77
asg12
I0
sa(dp2993
g5
I0
sg6
S'Unspecified'
p2994
sg8
S'person'
p2995
sg10
(lp2996
I573
aI74
aI590
aI87
asg12
I0
sa(dp2997
g5
I0
sg6
S'Unspecified'
p2998
sg8
S'person'
p2999
sg10
(lp3000
I597
aI87
aI617
aI110
asg12
I0
sa(dp3001
g5
I0
sg6
S'Unspecified'
p3002
sg8
S'person'
p3003
sg10
(lp3004
I571
aI96
aI590
aI117
asg12
I0
sa(dp3005
g5
I0
sg6
S'Unspecified'
p3006
sg8
S'person'
p3007
sg10
(lp3008
I594
aI57
aI607
aI74
asg12
I0
sa(dp3009
g5
I0
sg6
S'Unspecified'
p3010
sg8
S'person'
p3011
sg10
(lp3012
I604
aI56
aI619
aI73
asg12
I0
sa(dp3013
g5
I0
sg6
S'Unspecified'
p3014
sg8
S'person'
p3015
sg10
(lp3016
I616
aI66
aI630
aI83
asg12
I0
sa(dp3017
g5
I0
sg6
S'Unspecified'
p3018
sg8
S'person'
p3019
sg10
(lp3020
I633
aI56
aI648
aI72
asg12
I0
sa(dp3021
g5
I0
sg6
S'Unspecified'
p3022
sg8
S'person'
p3023
sg10
(lp3024
I641
aI74
aI655
aI94
asg12
I0
sa(dp3025
g5
I0
sg6
S'Unspecified'
p3026
sg8
S'person'
p3027
sg10
(lp3028
I645
aI64
aI661
aI79
asg12
I0
sa(dp3029
g5
I0
sg6
S'Unspecified'
p3030
sg8
S'person'
p3031
sg10
(lp3032
I659
aI55
aI674
aI72
asg12
I0
sa(dp3033
g5
I0
sg6
S'Unspecified'
p3034
sg8
S'person'
p3035
sg10
(lp3036
I681
aI68
aI698
aI87
asg12
I0
sa(dp3037
g5
I0
sg6
S'Unspecified'
p3038
sg8
S'person'
p3039
sg10
(lp3040
I678
aI60
aI691
aI73
asg12
I0
sa(dp3041
g5
I0
sg6
S'Unspecified'
p3042
sg8
S'person'
p3043
sg10
(lp3044
I688
aI50
aI700
aI66
asg12
I0
sa(dp3045
g5
I0
sg6
S'Unspecified'
p3046
sg8
S'person'
p3047
sg10
(lp3048
I715
aI53
aI725
aI67
asg12
I0
sa(dp3049
g5
I0
sg6
S'Unspecified'
p3050
sg8
S'person'
p3051
sg10
(lp3052
I710
aI66
aI725
aI80
asg12
I0
sa(dp3053
g5
I0
sg6
S'Unspecified'
p3054
sg8
S'person'
p3055
sg10
(lp3056
I722
aI80
aI739
aI99
asg12
I0
sa(dp3057
g5
I0
sg6
S'Unspecified'
p3058
sg8
S'person'
p3059
sg10
(lp3060
I741
aI55
aI753
aI73
asg12
I0
sa(dp3061
g5
I0
sg6
S'Unspecified'
p3062
sg8
S'person'
p3063
sg10
(lp3064
I580
aI125
aI603
aI153
asg12
I0
sa(dp3065
g5
I0
sg6
S'Unspecified'
p3066
sg8
S'person'
p3067
sg10
(lp3068
I555
aI145
aI591
aI187
asg12
I0
sa(dp3069
g5
I0
sg6
S'Unspecified'
p3070
sg8
S'person'
p3071
sg10
(lp3072
I500
aI147
aI528
aI179
asg12
I0
sa(dp3073
g5
I0
sg6
S'Unspecified'
p3074
sg8
S'person'
p3075
sg10
(lp3076
I622
aI163
aI653
aI203
asg12
I0
sa(dp3077
g5
I0
sg6
S'Unspecified'
p3078
sg8
S'person'
p3079
sg10
(lp3080
I635
aI130
aI661
aI160
asg12
I0
sa(dp3081
g5
I0
sg6
S'Unspecified'
p3082
sg8
S'person'
p3083
sg10
(lp3084
I650
aI107
aI666
aI129
asg12
I0
sa(dp3085
g5
I0
sg6
S'Unspecified'
p3086
sg8
S'person'
p3087
sg10
(lp3088
I685
aI95
aI705
aI116
asg12
I0
sa(dp3089
g5
I0
sg6
S'Unspecified'
p3090
sg8
S'person'
p3091
sg10
(lp3092
I741
aI93
aI760
aI122
asg12
I0
sa(dp3093
g5
I0
sg6
S'Unspecified'
p3094
sg8
S'person'
p3095
sg10
(lp3096
I755
aI74
aI771
aI97
asg12
I0
sa(dp3097
g5
I0
sg6
S'Unspecified'
p3098
sg8
S'person'
p3099
sg10
(lp3100
I772
aI67
aI789
aI88
asg12
I0
sa(dp3101
g5
I0
sg6
S'Unspecified'
p3102
sg8
S'person'
p3103
sg10
(lp3104
I784
aI80
aI800
aI99
asg12
I0
sa(dp3105
g5
I0
sg6
S'Unspecified'
p3106
sg8
S'person'
p3107
sg10
(lp3108
I765
aI87
aI781
aI109
asg12
I0
sa(dp3109
g5
I0
sg6
S'Unspecified'
p3110
sg8
S'person'
p3111
sg10
(lp3112
I753
aI114
aI775
aI140
asg12
I0
sa(dp3113
g5
I0
sg6
S'Unspecified'
p3114
sg8
S'person'
p3115
sg10
(lp3116
I683
aI144
aI710
aI176
asg12
I0
sa(dp3117
g5
I0
sg6
S'Unspecified'
p3118
sg8
S'person'
p3119
sg10
(lp3120
I711
aI162
aI741
aI199
asg12
I0
sa(dp3121
g5
I0
sg6
S'Unspecified'
p3122
sg8
S'person'
p3123
sg10
(lp3124
I751
aI156
aI775
aI188
asg12
I0
sa(dp3125
g5
I0
sg6
S'Unspecified'
p3126
sg8
S'person'
p3127
sg10
(lp3128
I757
aI195
aI795
aI237
asg12
I0
sa(dp3129
g5
I0
sg6
S'Unspecified'
p3130
sg8
S'person'
p3131
sg10
(lp3132
I837
aI211
aI876
aI253
asg12
I0
sa(dp3133
g5
I0
sg6
S'Unspecified'
p3134
sg8
S'person'
p3135
sg10
(lp3136
I920
aI223
aI961
aI275
asg12
I0
sa(dp3137
g5
I0
sg6
S'Unspecified'
p3138
sg8
S'person'
p3139
sg10
(lp3140
I860
aI160
aI894
aI200
asg12
I0
sa(dp3141
g5
I0
sg6
S'Unspecified'
p3142
sg8
S'person'
p3143
sg10
(lp3144
I798
aI166
aI826
aI200
asg12
I0
sa(dp3145
g5
I0
sg6
S'Unspecified'
p3146
sg8
S'person'
p3147
sg10
(lp3148
I790
aI123
aI813
aI153
asg12
I0
sa(dp3149
g5
I0
sg6
S'Unspecified'
p3150
sg8
S'person'
p3151
sg10
(lp3152
I780
aI102
aI799
aI130
asg12
I0
sa(dp3153
g5
I0
sg6
S'Unspecified'
p3154
sg8
S'person'
p3155
sg10
(lp3156
I818
aI80
aI835
aI102
asg12
I0
sa(dp3157
g5
I0
sg6
S'Unspecified'
p3158
sg8
S'person'
p3159
sg10
(lp3160
I824
aI71
aI839
aI86
asg12
I0
sa(dp3161
g5
I0
sg6
S'Unspecified'
p3162
sg8
S'person'
p3163
sg10
(lp3164
I838
aI79
aI856
aI103
asg12
I0
sa(dp3165
g5
I0
sg6
S'Unspecified'
p3166
sg8
S'person'
p3167
sg10
(lp3168
I824
aI104
aI849
aI127
asg12
I0
sa(dp3169
g5
I0
sg6
S'Unspecified'
p3170
sg8
S'person'
p3171
sg10
(lp3172
I839
aI122
aI861
aI151
asg12
I0
sa(dp3173
g5
I0
sg6
S'Unspecified'
p3174
sg8
S'person'
p3175
sg10
(lp3176
I895
aI141
aI921
aI172
asg12
I0
sa(dp3177
g5
I0
sg6
S'Unspecified'
p3178
sg8
S'person'
p3179
sg10
(lp3180
I913
aI120
aI934
aI148
asg12
I0
sa(dp3181
g5
I0
sg6
S'Unspecified'
p3182
sg8
S'person'
p3183
sg10
(lp3184
I952
aI111
aI973
aI136
asg12
I0
sa(dp3185
g5
I0
sg6
S'Unspecified'
p3186
sg8
S'person'
p3187
sg10
(lp3188
I947
aI148
aI972
aI179
asg12
I0
sa(dp3189
g5
I0
sg6
S'Unspecified'
p3190
sg8
S'person'
p3191
sg10
(lp3192
I938
aI182
aI966
aI219
asg12
I0
sasS'000871'
p3193
(lp3194
(dp3195
g5
I0
sg6
S'Unspecified'
p3196
sg8
S'hat'
p3197
sg10
(lp3198
I3651
aI832
aI4900
aI2314
asg12
I1
sa(dp3199
g5
I0
sg6
S'Unspecified'
p3200
sg8
S'hat'
p3201
sg10
(lp3202
I3310
aI4
aI4551
aI1263
asg12
I0
sa(dp3203
g5
I0
sg6
S'Unspecified'
p3204
sg8
S'hat'
p3205
sg10
(lp3206
I899
aI1
aI2072
aI942
asg12
I1
sa(dp3207
g5
I0
sg6
S'Unspecified'
p3208
sg8
S'hat'
p3209
sg10
(lp3210
I324
aI1
aI942
aI439
asg12
I1
sa(dp3211
g5
I0
sg6
S'Unspecified'
p3212
sg8
S'person'
p3213
sg10
(lp3214
I274
aI604
aI1388
aI2242
asg12
I0
sasS'PartB_01188'
p3215
(lp3216
(dp3217
g5
I0
sg6
S'Unspecified'
p3218
sg8
S'person'
p3219
sg10
(lp3220
I32
aI173
aI150
aI291
asg12
I0
sa(dp3221
g5
I0
sg6
S'Unspecified'
p3222
sg8
S'person'
p3223
sg10
(lp3224
I240
aI368
aI530
aI656
asg12
I0
sa(dp3225
g5
I0
sg6
S'Unspecified'
p3226
sg8
S'person'
p3227
sg10
(lp3228
I405
aI291
aI572
aI474
asg12
I0
sa(dp3229
g5
I0
sg6
S'Unspecified'
p3230
sg8
S'person'
p3231
sg10
(lp3232
I368
aI215
aI457
aI318
asg12
I0
sa(dp3233
g5
I0
sg6
S'Unspecified'
p3234
sg8
S'person'
p3235
sg10
(lp3236
I519
aI239
aI646
aI404
asg12
I0
sa(dp3237
g5
I0
sg6
S'Unspecified'
p3238
sg8
S'person'
p3239
sg10
(lp3240
I503
aI189
aI587
aI278
asg12
I0
sa(dp3241
g5
I0
sg6
S'Unspecified'
p3242
sg8
S'person'
p3243
sg10
(lp3244
I595
aI209
aI665
aI294
asg12
I0
sa(dp3245
g5
I0
sg6
S'Unspecified'
p3246
sg8
S'person'
p3247
sg10
(lp3248
I741
aI163
aI813
aI278
asg12
I0
sa(dp3249
g5
I0
sg6
S'Unspecified'
p3250
sg8
S'person'
p3251
sg10
(lp3252
I760
aI308
aI943
aI516
asg12
I0
sa(dp3253
g5
I0
sg6
S'Unspecified'
p3254
sg8
S'person'
p3255
sg10
(lp3256
I849
aI363
aI1208
aI736
asg12
I0
sa(dp3257
g5
I0
sg6
S'Unspecified'
p3258
sg8
S'person'
p3259
sg10
(lp3260
I918
aI220
aI1003
aI328
asg12
I0
sa(dp3261
g5
I0
sg6
S'Unspecified'
p3262
sg8
S'person'
p3263
sg10
(lp3264
I1126
aI175
aI1199
aI284
asg12
I0
sa(dp3265
g5
I0
sg6
S'Unspecified'
p3266
sg8
S'person'
p3267
sg10
(lp3268
I1132
aI244
aI1254
aI378
asg12
I0
sa(dp3269
g5
I0
sg6
S'Unspecified'
p3270
sg8
S'person'
p3271
sg10
(lp3272
I1278
aI228
aI1403
aI370
asg12
I0
sa(dp3273
g5
I0
sg6
S'Unspecified'
p3274
sg8
S'person'
p3275
sg10
(lp3276
I1377
aI275
aI1584
aI512
asg12
I0
sa(dp3277
g5
I0
sg6
S'Unspecified'
p3278
sg8
S'person'
p3279
sg10
(lp3280
I1339
aI143
aI1439
aI270
asg12
I0
sa(dp3281
g5
I0
sg6
S'Unspecified'
p3282
sg8
S'person'
p3283
sg10
(lp3284
I1565
aI184
aI1658
aI308
asg12
I0
sa(dp3285
g5
I0
sg6
S'Unspecified'
p3286
sg8
S'person'
p3287
sg10
(lp3288
I1636
aI230
aI1732
aI361
asg12
I0
sa(dp3289
g5
I0
sg6
S'Unspecified'
p3290
sg8
S'person'
p3291
sg10
(lp3292
I1725
aI270
aI1861
aI439
asg12
I0
sa(dp3293
g5
I0
sg6
S'Unspecified'
p3294
sg8
S'person'
p3295
sg10
(lp3296
I1902
aI219
aI2020
aI367
asg12
I0
sa(dp3297
g5
I0
sg6
S'Unspecified'
p3298
sg8
S'person'
p3299
sg10
(lp3300
I1867
aI195
aI1946
aI305
asg12
I0
sasS'part2_001197'
p3301
(lp3302
(dp3303
g5
I0
sg6
S'Unspecified'
p3304
sg8
S'hat'
p3305
sg10
(lp3306
I54
aI45
aI247
aI258
asg12
I0
sasS'PartB_02006'
p3307
(lp3308
(dp3309
g5
I0
sg6
S'Unspecified'
p3310
sg8
S'person'
p3311
sg10
(lp3312
I14
aI341
aI106
aI459
asg12
I0
sa(dp3313
g5
I0
sg6
S'Unspecified'
p3314
sg8
S'person'
p3315
sg10
(lp3316
I1
aI196
aI35
aI253
asg12
I1
sa(dp3317
g5
I0
sg6
S'Unspecified'
p3318
sg8
S'person'
p3319
sg10
(lp3320
I26
aI207
aI66
aI257
asg12
I0
sa(dp3321
g5
I0
sg6
S'Unspecified'
p3322
sg8
S'person'
p3323
sg10
(lp3324
I72
aI252
aI145
aI337
asg12
I0
sa(dp3325
g5
I0
sg6
S'Unspecified'
p3326
sg8
S'person'
p3327
sg10
(lp3328
I98
aI203
aI139
aI245
asg12
I0
sa(dp3329
g5
I0
sg6
S'Unspecified'
p3330
sg8
S'person'
p3331
sg10
(lp3332
I122
aI193
aI156
aI234
asg12
I0
sa(dp3333
g5
I0
sg6
S'Unspecified'
p3334
sg8
S'person'
p3335
sg10
(lp3336
I143
aI232
aI186
aI288
asg12
I0
sa(dp3337
g5
I0
sg6
S'Unspecified'
p3338
sg8
S'person'
p3339
sg10
(lp3340
I98
aI232
aI150
aI294
asg12
I0
sa(dp3341
g5
I0
sg6
S'Unspecified'
p3342
sg8
S'person'
p3343
sg10
(lp3344
I202
aI199
aI241
aI247
asg12
I0
sa(dp3345
g5
I0
sg6
S'Unspecified'
p3346
sg8
S'person'
p3347
sg10
(lp3348
I281
aI227
aI332
aI288
asg12
I0
sa(dp3349
g5
I0
sg6
S'Unspecified'
p3350
sg8
S'person'
p3351
sg10
(lp3352
I307
aI205
aI348
aI257
asg12
I0
sa(dp3353
g5
I0
sg6
S'Unspecified'
p3354
sg8
S'person'
p3355
sg10
(lp3356
I280
aI212
aI313
aI246
asg12
I0
sa(dp3357
g5
I0
sg6
S'Unspecified'
p3358
sg8
S'person'
p3359
sg10
(lp3360
I277
aI191
aI308
aI223
asg12
I0
sa(dp3361
g5
I0
sg6
S'Unspecified'
p3362
sg8
S'person'
p3363
sg10
(lp3364
I261
aI357
aI416
aI480
asg12
I1
sa(dp3365
g5
I0
sg6
S'Unspecified'
p3366
sg8
S'person'
p3367
sg10
(lp3368
I323
aI329
aI407
aI400
asg12
I0
sa(dp3369
g5
I0
sg6
S'Unspecified'
p3370
sg8
S'person'
p3371
sg10
(lp3372
I404
aI217
aI449
aI264
asg12
I0
sa(dp3373
g5
I0
sg6
S'Unspecified'
p3374
sg8
S'person'
p3375
sg10
(lp3376
I404
aI200
aI441
aI240
asg12
I0
sa(dp3377
g5
I0
sg6
S'Unspecified'
p3378
sg8
S'person'
p3379
sg10
(lp3380
I400
aI190
aI431
aI222
asg12
I0
sa(dp3381
g5
I0
sg6
S'Unspecified'
p3382
sg8
S'person'
p3383
sg10
(lp3384
I515
aI199
aI548
aI237
asg12
I0
sa(dp3385
g5
I0
sg6
S'Unspecified'
p3386
sg8
S'person'
p3387
sg10
(lp3388
I513
aI228
aI551
aI269
asg12
I0
sa(dp3389
g5
I0
sg6
S'Unspecified'
p3390
sg8
S'person'
p3391
sg10
(lp3392
I534
aI235
aI580
aI283
asg12
I0
sa(dp3393
g5
I0
sg6
S'Unspecified'
p3394
sg8
S'person'
p3395
sg10
(lp3396
I463
aI273
aI519
aI348
asg12
I0
sa(dp3397
g5
I0
sg6
S'Unspecified'
p3398
sg8
S'person'
p3399
sg10
(lp3400
I582
aI367
aI690
aI479
asg12
I0
sa(dp3401
g5
I0
sg6
S'Unspecified'
p3402
sg8
S'person'
p3403
sg10
(lp3404
I664
aI301
aI720
aI378
asg12
I1
sa(dp3405
g5
I0
sg6
S'Unspecified'
p3406
sg8
S'person'
p3407
sg10
(lp3408
I611
aI222
aI650
aI270
asg12
I0
sa(dp3409
g5
I0
sg6
S'Unspecified'
p3410
sg8
S'person'
p3411
sg10
(lp3412
I653
aI227
aI691
aI275
asg12
I0
sasS'part2_001696'
p3413
(lp3414
(dp3415
g5
I0
sg6
S'Unspecified'
p3416
sg8
S'hat'
p3417
sg10
(lp3418
I178
aI50
aI319
aI215
asg12
I0
sasS'part2_000284'
p3419
(lp3420
(dp3421
g5
I0
sg6
S'Unspecified'
p3422
sg8
S'hat'
p3423
sg10
(lp3424
I346
aI95
aI610
aI473
asg12
I0
sasS'000525'
p3425
(lp3426
(dp3427
g5
I0
sg6
S'Unspecified'
p3428
sg8
S'hat'
p3429
sg10
(lp3430
I77
aI138
aI163
aI229
asg12
I0
sasS'PartB_02172'
p3431
(lp3432
(dp3433
g5
I0
sg6
S'Unspecified'
p3434
sg8
S'person'
p3435
sg10
(lp3436
I32
aI341
aI57
aI370
asg12
I0
sa(dp3437
g5
I0
sg6
S'Unspecified'
p3438
sg8
S'person'
p3439
sg10
(lp3440
I50
aI332
aI73
aI362
asg12
I0
sa(dp3441
g5
I0
sg6
S'Unspecified'
p3442
sg8
S'person'
p3443
sg10
(lp3444
I105
aI344
aI130
aI371
asg12
I0
sa(dp3445
g5
I0
sg6
S'Unspecified'
p3446
sg8
S'person'
p3447
sg10
(lp3448
I157
aI347
aI183
aI376
asg12
I0
sa(dp3449
g5
I0
sg6
S'Unspecified'
p3450
sg8
S'person'
p3451
sg10
(lp3452
I183
aI367
aI222
aI409
asg12
I0
sa(dp3453
g5
I0
sg6
S'Unspecified'
p3454
sg8
S'person'
p3455
sg10
(lp3456
I208
aI309
aI223
aI325
asg12
I0
sa(dp3457
g5
I0
sg6
S'Unspecified'
p3458
sg8
S'person'
p3459
sg10
(lp3460
I289
aI435
aI369
aI522
asg12
I0
sa(dp3461
g5
I0
sg6
S'Unspecified'
p3462
sg8
S'person'
p3463
sg10
(lp3464
I300
aI371
aI325
aI406
asg12
I0
sa(dp3465
g5
I0
sg6
S'Unspecified'
p3466
sg8
S'person'
p3467
sg10
(lp3468
I315
aI348
aI340
aI374
asg12
I0
sa(dp3469
g5
I0
sg6
S'Unspecified'
p3470
sg8
S'person'
p3471
sg10
(lp3472
I387
aI347
aI410
aI372
asg12
I0
sa(dp3473
g5
I0
sg6
S'Unspecified'
p3474
sg8
S'person'
p3475
sg10
(lp3476
I370
aI344
aI393
aI367
asg12
I0
sa(dp3477
g5
I0
sg6
S'Unspecified'
p3478
sg8
S'person'
p3479
sg10
(lp3480
I411
aI340
aI433
aI365
asg12
I0
sa(dp3481
g5
I0
sg6
S'Unspecified'
p3482
sg8
S'person'
p3483
sg10
(lp3484
I479
aI418
aI547
aI499
asg12
I0
sa(dp3485
g5
I0
sg6
S'Unspecified'
p3486
sg8
S'person'
p3487
sg10
(lp3488
I461
aI337
aI480
aI360
asg12
I0
sa(dp3489
g5
I0
sg6
S'Unspecified'
p3490
sg8
S'person'
p3491
sg10
(lp3492
I480
aI359
aI508
aI386
asg12
I0
sa(dp3493
g5
I0
sg6
S'Unspecified'
p3494
sg8
S'person'
p3495
sg10
(lp3496
I493
aI344
aI520
aI370
asg12
I0
sa(dp3497
g5
I0
sg6
S'Unspecified'
p3498
sg8
S'person'
p3499
sg10
(lp3500
I486
aI327
aI503
aI348
asg12
I0
sa(dp3501
g5
I0
sg6
S'Unspecified'
p3502
sg8
S'person'
p3503
sg10
(lp3504
I527
aI332
aI545
aI351
asg12
I0
sa(dp3505
g5
I0
sg6
S'Unspecified'
p3506
sg8
S'person'
p3507
sg10
(lp3508
I546
aI321
aI560
aI343
asg12
I0
sa(dp3509
g5
I0
sg6
S'Unspecified'
p3510
sg8
S'person'
p3511
sg10
(lp3512
I567
aI331
aI586
aI354
asg12
I0
sa(dp3513
g5
I0
sg6
S'Unspecified'
p3514
sg8
S'person'
p3515
sg10
(lp3516
I576
aI344
aI602
aI374
asg12
I0
sa(dp3517
g5
I0
sg6
S'Unspecified'
p3518
sg8
S'person'
p3519
sg10
(lp3520
I599
aI367
aI629
aI398
asg12
I0
sa(dp3521
g5
I0
sg6
S'Unspecified'
p3522
sg8
S'person'
p3523
sg10
(lp3524
I616
aI320
aI636
aI338
asg12
I0
sa(dp3525
g5
I0
sg6
S'Unspecified'
p3526
sg8
S'person'
p3527
sg10
(lp3528
I649
aI354
aI682
aI394
asg12
I0
sa(dp3529
g5
I0
sg6
S'Unspecified'
p3530
sg8
S'person'
p3531
sg10
(lp3532
I684
aI352
aI717
aI391
asg12
I0
sa(dp3533
g5
I0
sg6
S'Unspecified'
p3534
sg8
S'person'
p3535
sg10
(lp3536
I685
aI337
aI703
aI360
asg12
I0
sa(dp3537
g5
I0
sg6
S'Unspecified'
p3538
sg8
S'person'
p3539
sg10
(lp3540
I658
aI324
aI673
aI347
asg12
I0
sa(dp3541
g5
I0
sg6
S'Unspecified'
p3542
sg8
S'person'
p3543
sg10
(lp3544
I636
aI322
aI649
aI340
asg12
I0
sa(dp3545
g5
I0
sg6
S'Unspecified'
p3546
sg8
S'person'
p3547
sg10
(lp3548
I712
aI325
aI732
aI343
asg12
I0
sa(dp3549
g5
I0
sg6
S'Unspecified'
p3550
sg8
S'person'
p3551
sg10
(lp3552
I747
aI328
aI763
aI347
asg12
I0
sa(dp3553
g5
I0
sg6
S'Unspecified'
p3554
sg8
S'person'
p3555
sg10
(lp3556
I723
aI353
aI751
aI387
asg12
I0
sa(dp3557
g5
I0
sg6
S'Unspecified'
p3558
sg8
S'person'
p3559
sg10
(lp3560
I775
aI340
aI797
aI369
asg12
I0
sasS'part2_002306'
p3561
(lp3562
(dp3563
g5
I0
sg6
S'Unspecified'
p3564
sg8
S'hat'
p3565
sg10
(lp3566
I158
aI84
aI223
aI157
asg12
I0
sasS'001429'
p3567
(lp3568
(dp3569
g5
I0
sg6
S'Unspecified'
p3570
sg8
S'hat'
p3571
sg10
(lp3572
I461
aI39
aI591
aI224
asg12
I0
sasS'PartB_01121'
p3573
(lp3574
(dp3575
g5
I0
sg6
S'Unspecified'
p3576
sg8
S'person'
p3577
sg10
(lp3578
I56
aI397
aI164
aI485
asg12
I0
sa(dp3579
g5
I0
sg6
S'Unspecified'
p3580
sg8
S'person'
p3581
sg10
(lp3582
I195
aI437
aI316
aI552
asg12
I0
sa(dp3583
g5
I0
sg6
S'Unspecified'
p3584
sg8
S'person'
p3585
sg10
(lp3586
I336
aI375
aI429
aI481
asg12
I0
sa(dp3587
g5
I0
sg6
S'Unspecified'
p3588
sg8
S'person'
p3589
sg10
(lp3590
I548
aI265
aI599
aI321
asg12
I0
sa(dp3591
g5
I0
sg6
S'Unspecified'
p3592
sg8
S'person'
p3593
sg10
(lp3594
I979
aI459
aI1118
aI612
asg12
I0
sa(dp3595
g5
I0
sg6
S'Unspecified'
p3596
sg8
S'person'
p3597
sg10
(lp3598
I1042
aI408
aI1123
aI502
asg12
I0
sasS'000134'
p3599
(lp3600
(dp3601
g5
I0
sg6
S'Unspecified'
p3602
sg8
S'hat'
p3603
sg10
(lp3604
I124
aI93
aI155
aI131
asg12
I0
sa(dp3605
g5
I0
sg6
S'Unspecified'
p3606
sg8
S'hat'
p3607
sg10
(lp3608
I208
aI79
aI239
aI121
asg12
I0
sa(dp3609
g5
I0
sg6
S'Unspecified'
p3610
sg8
S'hat'
p3611
sg10
(lp3612
I277
aI103
aI311
aI138
asg12
I0
sa(dp3613
g5
I0
sg6
S'Unspecified'
p3614
sg8
S'hat'
p3615
sg10
(lp3616
I364
aI74
aI398
aI112
asg12
I0
sa(dp3617
g5
I0
sg6
S'Unspecified'
p3618
sg8
S'hat'
p3619
sg10
(lp3620
I439
aI81
aI475
aI123
asg12
I0
sa(dp3621
g5
I0
sg6
S'Unspecified'
p3622
sg8
S'hat'
p3623
sg10
(lp3624
I515
aI92
aI554
aI137
asg12
I0
sa(dp3625
g5
I0
sg6
S'Unspecified'
p3626
sg8
S'hat'
p3627
sg10
(lp3628
I600
aI92
aI634
aI133
asg12
I0
sasS'001066'
p3629
(lp3630
(dp3631
g5
I0
sg6
S'Unspecified'
p3632
sg8
S'hat'
p3633
sg10
(lp3634
I49
aI77
aI311
aI347
asg12
I0
sasS'PartA_01021'
p3635
(lp3636
(dp3637
g5
I0
sg6
S'Unspecified'
p3638
sg8
S'person'
p3639
sg10
(lp3640
I400
aI92
aI422
aI117
asg12
I0
sa(dp3641
g5
I0
sg6
S'Unspecified'
p3642
sg8
S'person'
p3643
sg10
(lp3644
I426
aI84
aI442
aI102
asg12
I0
sa(dp3645
g5
I0
sg6
S'Unspecified'
p3646
sg8
S'person'
p3647
sg10
(lp3648
I494
aI72
aI513
aI93
asg12
I0
sa(dp3649
g5
I0
sg6
S'Unspecified'
p3650
sg8
S'person'
p3651
sg10
(lp3652
I511
aI83
aI528
aI108
asg12
I0
sa(dp3653
g5
I0
sg6
S'Unspecified'
p3654
sg8
S'person'
p3655
sg10
(lp3656
I543
aI89
aI562
aI111
asg12
I0
sa(dp3657
g5
I0
sg6
S'Unspecified'
p3658
sg8
S'person'
p3659
sg10
(lp3660
I565
aI83
aI586
aI105
asg12
I0
sa(dp3661
g5
I0
sg6
S'Unspecified'
p3662
sg8
S'person'
p3663
sg10
(lp3664
I533
aI110
aI556
aI134
asg12
I0
sa(dp3665
g5
I0
sg6
S'Unspecified'
p3666
sg8
S'person'
p3667
sg10
(lp3668
I739
aI50
aI768
aI74
asg12
I0
sa(dp3669
g5
I0
sg6
S'Unspecified'
p3670
sg8
S'person'
p3671
sg10
(lp3672
I740
aI58
aI750
aI89
asg12
I0
sasS'part2_000931'
p3673
(lp3674
(dp3675
g5
I0
sg6
S'Unspecified'
p3676
sg8
S'hat'
p3677
sg10
(lp3678
I1204
aI194
aI1301
aI319
asg12
I0
sa(dp3679
g5
I0
sg6
S'Unspecified'
p3680
sg8
S'hat'
p3681
sg10
(lp3682
I1462
aI336
aI1500
aI411
asg12
I1
sa(dp3683
g5
I0
sg6
S'Unspecified'
p3684
sg8
S'hat'
p3685
sg10
(lp3686
I1125
aI293
aI1195
aI394
asg12
I0
sa(dp3687
g5
I0
sg6
S'Unspecified'
p3688
sg8
S'hat'
p3689
sg10
(lp3690
I869
aI52
aI1006
aI214
asg12
I0
sa(dp3691
g5
I0
sg6
S'Unspecified'
p3692
sg8
S'hat'
p3693
sg10
(lp3694
I747
aI280
aI835
aI363
asg12
I0
sa(dp3695
g5
I0
sg6
S'Unspecified'
p3696
sg8
S'hat'
p3697
sg10
(lp3698
I645
aI207
aI745
aI340
asg12
I0
sa(dp3699
g5
I0
sg6
S'Unspecified'
p3700
sg8
S'hat'
p3701
sg10
(lp3702
I618
aI296
aI681
aI380
asg12
I0
sa(dp3703
g5
I0
sg6
S'Unspecified'
p3704
sg8
S'hat'
p3705
sg10
(lp3706
I479
aI206
aI580
aI310
asg12
I0
sa(dp3707
g5
I0
sg6
S'Unspecified'
p3708
sg8
S'hat'
p3709
sg10
(lp3710
I370
aI249
aI459
aI340
asg12
I0
sa(dp3711
g5
I0
sg6
S'Unspecified'
p3712
sg8
S'hat'
p3713
sg10
(lp3714
I265
aI291
aI336
aI382
asg12
I0
sa(dp3715
g5
I0
sg6
S'Unspecified'
p3716
sg8
S'hat'
p3717
sg10
(lp3718
I246
aI312
aI280
aI381
asg12
I0
sa(dp3719
g5
I0
sg6
S'Unspecified'
p3720
sg8
S'hat'
p3721
sg10
(lp3722
I220
aI357
aI260
aI414
asg12
I0
sa(dp3723
g5
I0
sg6
S'Unspecified'
p3724
sg8
S'hat'
p3725
sg10
(lp3726
I73
aI310
aI152
aI391
asg12
I0
sasS'PartA_01026'
p3727
(lp3728
(dp3729
g5
I0
sg6
S'Unspecified'
p3730
sg8
S'person'
p3731
sg10
(lp3732
I169
aI196
aI221
aI236
asg12
I0
sa(dp3733
g5
I0
sg6
S'Unspecified'
p3734
sg8
S'person'
p3735
sg10
(lp3736
I320
aI116
aI336
aI135
asg12
I0
sa(dp3737
g5
I0
sg6
S'Unspecified'
p3738
sg8
S'person'
p3739
sg10
(lp3740
I339
aI127
aI355
aI143
asg12
I0
sa(dp3741
g5
I0
sg6
S'Unspecified'
p3742
sg8
S'person'
p3743
sg10
(lp3744
I361
aI127
aI376
aI144
asg12
I0
sa(dp3745
g5
I0
sg6
S'Unspecified'
p3746
sg8
S'person'
p3747
sg10
(lp3748
I378
aI141
aI391
aI164
asg12
I0
sa(dp3749
g5
I0
sg6
S'Unspecified'
p3750
sg8
S'person'
p3751
sg10
(lp3752
I425
aI133
aI444
aI155
asg12
I0
sa(dp3753
g5
I0
sg6
S'Unspecified'
p3754
sg8
S'person'
p3755
sg10
(lp3756
I380
aI110
aI400
aI130
asg12
I0
sa(dp3757
g5
I0
sg6
S'Unspecified'
p3758
sg8
S'person'
p3759
sg10
(lp3760
I406
aI107
aI420
aI131
asg12
I0
sa(dp3761
g5
I0
sg6
S'Unspecified'
p3762
sg8
S'person'
p3763
sg10
(lp3764
I333
aI102
aI350
aI116
asg12
I0
sa(dp3765
g5
I0
sg6
S'Unspecified'
p3766
sg8
S'person'
p3767
sg10
(lp3768
I352
aI114
aI365
aI127
asg12
I0
sa(dp3769
g5
I0
sg6
S'Unspecified'
p3770
sg8
S'person'
p3771
sg10
(lp3772
I428
aI94
aI440
aI109
asg12
I0
sa(dp3773
g5
I0
sg6
S'Unspecified'
p3774
sg8
S'person'
p3775
sg10
(lp3776
I435
aI83
aI445
aI95
asg12
I0
sa(dp3777
g5
I0
sg6
S'Unspecified'
p3778
sg8
S'person'
p3779
sg10
(lp3780
I457
aI92
aI472
aI109
asg12
I0
sa(dp3781
g5
I0
sg6
S'Unspecified'
p3782
sg8
S'person'
p3783
sg10
(lp3784
I435
aI111
aI450
aI130
asg12
I0
sa(dp3785
g5
I0
sg6
S'Unspecified'
p3786
sg8
S'person'
p3787
sg10
(lp3788
I460
aI123
aI474
aI144
asg12
I0
sa(dp3789
g5
I0
sg6
S'Unspecified'
p3790
sg8
S'person'
p3791
sg10
(lp3792
I490
aI129
aI511
aI150
asg12
I0
sa(dp3793
g5
I0
sg6
S'Unspecified'
p3794
sg8
S'person'
p3795
sg10
(lp3796
I520
aI99
aI536
aI119
asg12
I0
sa(dp3797
g5
I0
sg6
S'Unspecified'
p3798
sg8
S'person'
p3799
sg10
(lp3800
I492
aI106
aI506
aI121
asg12
I0
sa(dp3801
g5
I0
sg6
S'Unspecified'
p3802
sg8
S'person'
p3803
sg10
(lp3804
I479
aI79
aI488
aI93
asg12
I0
sa(dp3805
g5
I0
sg6
S'Unspecified'
p3806
sg8
S'person'
p3807
sg10
(lp3808
I507
aI80
aI520
aI90
asg12
I0
sa(dp3809
g5
I0
sg6
S'Unspecified'
p3810
sg8
S'person'
p3811
sg10
(lp3812
I525
aI82
aI539
aI99
asg12
I0
sa(dp3813
g5
I0
sg6
S'Unspecified'
p3814
sg8
S'person'
p3815
sg10
(lp3816
I529
aI69
aI541
aI80
asg12
I0
sa(dp3817
g5
I0
sg6
S'Unspecified'
p3818
sg8
S'person'
p3819
sg10
(lp3820
I547
aI71
aI560
aI83
asg12
I0
sa(dp3821
g5
I0
sg6
S'Unspecified'
p3822
sg8
S'person'
p3823
sg10
(lp3824
I541
aI95
aI551
aI110
asg12
I0
sa(dp3825
g5
I0
sg6
S'Unspecified'
p3826
sg8
S'person'
p3827
sg10
(lp3828
I568
aI91
aI582
aI102
asg12
I0
sa(dp3829
g5
I0
sg6
S'Unspecified'
p3830
sg8
S'person'
p3831
sg10
(lp3832
I584
aI83
aI596
aI96
asg12
I0
sa(dp3833
g5
I0
sg6
S'Unspecified'
p3834
sg8
S'person'
p3835
sg10
(lp3836
I563
aI73
aI573
aI85
asg12
I0
sa(dp3837
g5
I0
sg6
S'Unspecified'
p3838
sg8
S'person'
p3839
sg10
(lp3840
I599
aI69
aI610
aI80
asg12
I0
sa(dp3841
g5
I0
sg6
S'Unspecified'
p3842
sg8
S'person'
p3843
sg10
(lp3844
I608
aI64
aI618
aI75
asg12
I0
sa(dp3845
g5
I0
sg6
S'Unspecified'
p3846
sg8
S'person'
p3847
sg10
(lp3848
I622
aI71
aI634
aI88
asg12
I0
sa(dp3849
g5
I0
sg6
S'Unspecified'
p3850
sg8
S'person'
p3851
sg10
(lp3852
I637
aI62
aI649
aI76
asg12
I0
sa(dp3853
g5
I0
sg6
S'Unspecified'
p3854
sg8
S'person'
p3855
sg10
(lp3856
I650
aI70
aI661
aI85
asg12
I0
sa(dp3857
g5
I0
sg6
S'Unspecified'
p3858
sg8
S'person'
p3859
sg10
(lp3860
I662
aI66
aI672
aI78
asg12
I0
sa(dp3861
g5
I0
sg6
S'Unspecified'
p3862
sg8
S'person'
p3863
sg10
(lp3864
I646
aI87
aI659
aI102
asg12
I0
sa(dp3865
g5
I0
sg6
S'Unspecified'
p3866
sg8
S'person'
p3867
sg10
(lp3868
I505
aI153
aI528
aI181
asg12
I0
sa(dp3869
g5
I0
sg6
S'Unspecified'
p3870
sg8
S'person'
p3871
sg10
(lp3872
I557
aI159
aI576
aI186
asg12
I0
sa(dp3873
g5
I0
sg6
S'Unspecified'
p3874
sg8
S'person'
p3875
sg10
(lp3876
I615
aI183
aI640
aI212
asg12
I0
sa(dp3877
g5
I0
sg6
S'Unspecified'
p3878
sg8
S'person'
p3879
sg10
(lp3880
I590
aI134
aI609
aI158
asg12
I0
sa(dp3881
g5
I0
sg6
S'Unspecified'
p3882
sg8
S'person'
p3883
sg10
(lp3884
I564
aI105
aI579
aI123
asg12
I0
sa(dp3885
g5
I0
sg6
S'Unspecified'
p3886
sg8
S'person'
p3887
sg10
(lp3888
I602
aI95
aI620
aI111
asg12
I0
sa(dp3889
g5
I0
sg6
S'Unspecified'
p3890
sg8
S'person'
p3891
sg10
(lp3892
I689
aI96
aI704
aI117
asg12
I0
sa(dp3893
g5
I0
sg6
S'Unspecified'
p3894
sg8
S'person'
p3895
sg10
(lp3896
I692
aI56
aI699
aI68
asg12
I0
sa(dp3897
g5
I0
sg6
S'Unspecified'
p3898
sg8
S'person'
p3899
sg10
(lp3900
I712
aI66
aI725
aI79
asg12
I0
sa(dp3901
g5
I0
sg6
S'Unspecified'
p3902
sg8
S'person'
p3903
sg10
(lp3904
I722
aI58
aI732
aI73
asg12
I0
sa(dp3905
g5
I0
sg6
S'Unspecified'
p3906
sg8
S'person'
p3907
sg10
(lp3908
I749
aI61
aI762
aI73
asg12
I0
sa(dp3909
g5
I0
sg6
S'Unspecified'
p3910
sg8
S'person'
p3911
sg10
(lp3912
I765
aI80
aI775
aI98
asg12
I0
sa(dp3913
g5
I0
sg6
S'Unspecified'
p3914
sg8
S'person'
p3915
sg10
(lp3916
I777
aI73
aI789
aI90
asg12
I0
sa(dp3917
g5
I0
sg6
S'Unspecified'
p3918
sg8
S'person'
p3919
sg10
(lp3920
I650
aI128
aI667
aI155
asg12
I0
sa(dp3921
g5
I0
sg6
S'Unspecified'
p3922
sg8
S'person'
p3923
sg10
(lp3924
I705
aI148
aI725
aI169
asg12
I0
sa(dp3925
g5
I0
sg6
S'Unspecified'
p3926
sg8
S'person'
p3927
sg10
(lp3928
I712
aI169
aI734
aI197
asg12
I0
sa(dp3929
g5
I0
sg6
S'Unspecified'
p3930
sg8
S'person'
p3931
sg10
(lp3932
I757
aI155
aI774
aI184
asg12
I0
sa(dp3933
g5
I0
sg6
S'Unspecified'
p3934
sg8
S'person'
p3935
sg10
(lp3936
I760
aI215
aI790
aI252
asg12
I0
sa(dp3937
g5
I0
sg6
S'Unspecified'
p3938
sg8
S'person'
p3939
sg10
(lp3940
I835
aI223
aI861
aI261
asg12
I0
sa(dp3941
g5
I0
sg6
S'Unspecified'
p3942
sg8
S'person'
p3943
sg10
(lp3944
I917
aI234
aI951
aI276
asg12
I0
sa(dp3945
g5
I0
sg6
S'Unspecified'
p3946
sg8
S'person'
p3947
sg10
(lp3948
I943
aI194
aI962
aI222
asg12
I0
sa(dp3949
g5
I0
sg6
S'Unspecified'
p3950
sg8
S'person'
p3951
sg10
(lp3952
I869
aI170
aI891
aI206
asg12
I0
sa(dp3953
g5
I0
sg6
S'Unspecified'
p3954
sg8
S'person'
p3955
sg10
(lp3956
I811
aI170
aI835
aI197
asg12
I0
sa(dp3957
g5
I0
sg6
S'Unspecified'
p3958
sg8
S'person'
p3959
sg10
(lp3960
I784
aI145
aI799
aI172
asg12
I0
sa(dp3961
g5
I0
sg6
S'Unspecified'
p3962
sg8
S'person'
p3963
sg10
(lp3964
I749
aI127
aI767
aI149
asg12
I0
sa(dp3965
g5
I0
sg6
S'Unspecified'
p3966
sg8
S'person'
p3967
sg10
(lp3968
I744
aI104
aI759
aI120
asg12
I0
sa(dp3969
g5
I0
sg6
S'Unspecified'
p3970
sg8
S'person'
p3971
sg10
(lp3972
I725
aI88
aI742
aI103
asg12
I0
sa(dp3973
g5
I0
sg6
S'Unspecified'
p3974
sg8
S'person'
p3975
sg10
(lp3976
I778
aI97
aI785
aI116
asg12
I0
sa(dp3977
g5
I0
sg6
S'Unspecified'
p3978
sg8
S'person'
p3979
sg10
(lp3980
I789
aI101
aI801
aI121
asg12
I0
sa(dp3981
g5
I0
sg6
S'Unspecified'
p3982
sg8
S'person'
p3983
sg10
(lp3984
I827
aI84
aI838
aI101
asg12
I0
sa(dp3985
g5
I0
sg6
S'Unspecified'
p3986
sg8
S'person'
p3987
sg10
(lp3988
I845
aI86
aI857
aI104
asg12
I0
sa(dp3989
g5
I0
sg6
S'Unspecified'
p3990
sg8
S'person'
p3991
sg10
(lp3992
I833
aI135
aI853
aI157
asg12
I0
sa(dp3993
g5
I0
sg6
S'Unspecified'
p3994
sg8
S'person'
p3995
sg10
(lp3996
I840
aI116
aI854
aI130
asg12
I0
sa(dp3997
g5
I0
sg6
S'Unspecified'
p3998
sg8
S'person'
p3999
sg10
(lp4000
I905
aI140
aI921
aI167
asg12
I0
sa(dp4001
g5
I0
sg6
S'Unspecified'
p4002
sg8
S'person'
p4003
sg10
(lp4004
I920
aI127
aI938
aI150
asg12
I0
sa(dp4005
g5
I0
sg6
S'Unspecified'
p4006
sg8
S'person'
p4007
sg10
(lp4008
I961
aI120
aI975
aI141
asg12
I0
sa(dp4009
g5
I0
sg6
S'Unspecified'
p4010
sg8
S'person'
p4011
sg10
(lp4012
I959
aI156
aI976
aI184
asg12
I0
sa(dp4013
g5
I0
sg6
S'Unspecified'
p4014
sg8
S'person'
p4015
sg10
(lp4016
I808
aI78
aI822
aI96
asg12
I0
sasS'part2_000144'
p4017
(lp4018
(dp4019
g5
I0
sg6
S'Unspecified'
p4020
sg8
S'hat'
p4021
sg10
(lp4022
I1255
aI1
aI2578
aI1412
asg12
I1
sasS'part2_000482'
p4023
(lp4024
(dp4025
g5
I0
sg6
S'Unspecified'
p4026
sg8
S'hat'
p4027
sg10
(lp4028
I186
aI59
aI234
aI124
asg12
I0
sa(dp4029
g5
I0
sg6
S'Unspecified'
p4030
sg8
S'hat'
p4031
sg10
(lp4032
I251
aI106
aI280
aI145
asg12
I0
sa(dp4033
g5
I0
sg6
S'Unspecified'
p4034
sg8
S'hat'
p4035
sg10
(lp4036
I86
aI1
aI175
aI49
asg12
I1
sasS'PartA_00627'
p4037
(lp4038
(dp4039
g5
I0
sg6
S'Unspecified'
p4040
sg8
S'person'
p4041
sg10
(lp4042
I49
aI224
aI69
aI243
asg12
I0
sa(dp4043
g5
I0
sg6
S'Unspecified'
p4044
sg8
S'person'
p4045
sg10
(lp4046
I100
aI215
aI123
aI238
asg12
I0
sa(dp4047
g5
I0
sg6
S'Unspecified'
p4048
sg8
S'person'
p4049
sg10
(lp4050
I164
aI208
aI182
aI227
asg12
I0
sasS'part2_002252'
p4051
(lp4052
(dp4053
g5
I0
sg6
S'Unspecified'
p4054
sg8
S'hat'
p4055
sg10
(lp4056
I330
aI6
aI465
aI192
asg12
I0
sasS'PartB_00511'
p4057
(lp4058
(dp4059
g5
I0
sg6
S'Unspecified'
p4060
sg8
S'person'
p4061
sg10
(lp4062
I452
aI156
aI474
aI186
asg12
I0
sa(dp4063
g5
I0
sg6
S'Unspecified'
p4064
sg8
S'person'
p4065
sg10
(lp4066
I379
aI165
aI397
aI187
asg12
I0
sa(dp4067
g5
I0
sg6
S'Unspecified'
p4068
sg8
S'person'
p4069
sg10
(lp4070
I355
aI157
aI376
aI177
asg12
I0
sa(dp4071
g5
I0
sg6
S'Unspecified'
p4072
sg8
S'person'
p4073
sg10
(lp4074
I324
aI167
aI345
aI187
asg12
I0
sa(dp4075
g5
I0
sg6
S'Unspecified'
p4076
sg8
S'person'
p4077
sg10
(lp4078
I303
aI167
aI321
aI188
asg12
I0
sa(dp4079
g5
I0
sg6
S'Unspecified'
p4080
sg8
S'person'
p4081
sg10
(lp4082
I275
aI178
aI304
aI208
asg12
I0
sa(dp4083
g5
I0
sg6
S'Unspecified'
p4084
sg8
S'person'
p4085
sg10
(lp4086
I272
aI156
aI288
aI177
asg12
I0
sa(dp4087
g5
I0
sg6
S'Unspecified'
p4088
sg8
S'person'
p4089
sg10
(lp4090
I193
aI174
aI230
aI210
asg12
I0
sa(dp4091
g5
I0
sg6
S'Unspecified'
p4092
sg8
S'person'
p4093
sg10
(lp4094
I210
aI154
aI235
aI184
asg12
I0
sa(dp4095
g5
I0
sg6
S'Unspecified'
p4096
sg8
S'person'
p4097
sg10
(lp4098
I180
aI143
aI197
aI165
asg12
I0
sa(dp4099
g5
I0
sg6
S'Unspecified'
p4100
sg8
S'person'
p4101
sg10
(lp4102
I161
aI146
aI179
aI166
asg12
I0
sa(dp4103
g5
I0
sg6
S'Unspecified'
p4104
sg8
S'person'
p4105
sg10
(lp4106
I125
aI174
aI158
aI208
asg12
I0
sa(dp4107
g5
I0
sg6
S'Unspecified'
p4108
sg8
S'person'
p4109
sg10
(lp4110
I98
aI161
aI128
aI190
asg12
I0
sa(dp4111
g5
I0
sg6
S'Unspecified'
p4112
sg8
S'person'
p4113
sg10
(lp4114
I30
aI155
aI60
aI186
asg12
I0
sa(dp4115
g5
I0
sg6
S'Unspecified'
p4116
sg8
S'person'
p4117
sg10
(lp4118
I1
aI156
aI20
aI182
asg12
I1
sa(dp4119
g5
I0
sg6
S'Unspecified'
p4120
sg8
S'person'
p4121
sg10
(lp4122
I142
aI153
aI156
aI166
asg12
I0
sa(dp4123
g5
I0
sg6
S'Unspecified'
p4124
sg8
S'person'
p4125
sg10
(lp4126
I135
aI146
aI146
aI160
asg12
I0
sasS'PartA_00574'
p4127
(lp4128
(dp4129
g5
I0
sg6
S'Unspecified'
p4130
sg8
S'person'
p4131
sg10
(lp4132
I55
aI128
aI69
aI148
asg12
I0
sa(dp4133
g5
I0
sg6
S'Unspecified'
p4134
sg8
S'person'
p4135
sg10
(lp4136
I100
aI129
aI114
aI147
asg12
I0
sa(dp4137
g5
I0
sg6
S'Unspecified'
p4138
sg8
S'person'
p4139
sg10
(lp4140
I279
aI116
aI294
aI135
asg12
I0
sa(dp4141
g5
I0
sg6
S'Unspecified'
p4142
sg8
S'person'
p4143
sg10
(lp4144
I317
aI97
aI332
aI112
asg12
I0
sa(dp4145
g5
I0
sg6
S'Unspecified'
p4146
sg8
S'person'
p4147
sg10
(lp4148
I377
aI98
aI395
aI119
asg12
I0
sa(dp4149
g5
I0
sg6
S'Unspecified'
p4150
sg8
S'person'
p4151
sg10
(lp4152
I408
aI89
aI423
aI107
asg12
I0
sa(dp4153
g5
I0
sg6
S'Unspecified'
p4154
sg8
S'person'
p4155
sg10
(lp4156
I424
aI70
aI442
aI86
asg12
I0
sa(dp4157
g5
I0
sg6
S'Unspecified'
p4158
sg8
S'person'
p4159
sg10
(lp4160
I501
aI84
aI514
aI102
asg12
I0
sa(dp4161
g5
I0
sg6
S'Unspecified'
p4162
sg8
S'person'
p4163
sg10
(lp4164
I579
aI62
aI594
aI77
asg12
I0
sa(dp4165
g5
I0
sg6
S'Unspecified'
p4166
sg8
S'person'
p4167
sg10
(lp4168
I459
aI100
aI475
aI121
asg12
I0
sa(dp4169
g5
I0
sg6
S'Unspecified'
p4170
sg8
S'person'
p4171
sg10
(lp4172
I398
aI130
aI415
aI151
asg12
I0
sa(dp4173
g5
I0
sg6
S'Unspecified'
p4174
sg8
S'person'
p4175
sg10
(lp4176
I407
aI115
aI420
aI133
asg12
I0
sa(dp4177
g5
I0
sg6
S'Unspecified'
p4178
sg8
S'person'
p4179
sg10
(lp4180
I513
aI91
aI526
aI110
asg12
I0
sa(dp4181
g5
I0
sg6
S'Unspecified'
p4182
sg8
S'person'
p4183
sg10
(lp4184
I575
aI105
aI595
aI127
asg12
I0
sa(dp4185
g5
I0
sg6
S'Unspecified'
p4186
sg8
S'person'
p4187
sg10
(lp4188
I611
aI91
aI628
aI112
asg12
I0
sa(dp4189
g5
I0
sg6
S'Unspecified'
p4190
sg8
S'person'
p4191
sg10
(lp4192
I565
aI123
aI586
aI150
asg12
I0
sa(dp4193
g5
I0
sg6
S'Unspecified'
p4194
sg8
S'person'
p4195
sg10
(lp4196
I574
aI146
aI599
aI182
asg12
I0
sa(dp4197
g5
I0
sg6
S'Unspecified'
p4198
sg8
S'person'
p4199
sg10
(lp4200
I603
aI168
aI636
aI202
asg12
I0
sa(dp4201
g5
I0
sg6
S'Unspecified'
p4202
sg8
S'person'
p4203
sg10
(lp4204
I613
aI142
aI633
aI165
asg12
I0
sa(dp4205
g5
I0
sg6
S'Unspecified'
p4206
sg8
S'person'
p4207
sg10
(lp4208
I612
aI111
aI630
aI129
asg12
I0
sa(dp4209
g5
I0
sg6
S'Unspecified'
p4210
sg8
S'person'
p4211
sg10
(lp4212
I667
aI113
aI688
aI134
asg12
I0
sa(dp4213
g5
I0
sg6
S'Unspecified'
p4214
sg8
S'person'
p4215
sg10
(lp4216
I736
aI118
aI756
aI146
asg12
I0
sa(dp4217
g5
I0
sg6
S'Unspecified'
p4218
sg8
S'person'
p4219
sg10
(lp4220
I738
aI143
aI756
aI174
asg12
I0
sa(dp4221
g5
I0
sg6
S'Unspecified'
p4222
sg8
S'person'
p4223
sg10
(lp4224
I778
aI149
aI796
aI180
asg12
I0
sa(dp4225
g5
I0
sg6
S'Unspecified'
p4226
sg8
S'person'
p4227
sg10
(lp4228
I799
aI142
aI817
aI169
asg12
I0
sa(dp4229
g5
I0
sg6
S'Unspecified'
p4230
sg8
S'person'
p4231
sg10
(lp4232
I852
aI116
aI869
aI140
asg12
I0
sa(dp4233
g5
I0
sg6
S'Unspecified'
p4234
sg8
S'person'
p4235
sg10
(lp4236
I831
aI161
aI853
aI196
asg12
I0
sa(dp4237
g5
I0
sg6
S'Unspecified'
p4238
sg8
S'person'
p4239
sg10
(lp4240
I827
aI211
aI855
aI247
asg12
I0
sa(dp4241
g5
I0
sg6
S'Unspecified'
p4242
sg8
S'person'
p4243
sg10
(lp4244
I446
aI85
aI460
aI107
asg12
I0
sasS'PartA_00195'
p4245
(lp4246
(dp4247
g5
I0
sg6
S'Unspecified'
p4248
sg8
S'person'
p4249
sg10
(lp4250
I88
aI356
aI133
aI405
asg12
I0
sa(dp4251
g5
I0
sg6
S'Unspecified'
p4252
sg8
S'person'
p4253
sg10
(lp4254
I197
aI230
aI216
aI254
asg12
I0
sa(dp4255
g5
I0
sg6
S'Unspecified'
p4256
sg8
S'person'
p4257
sg10
(lp4258
I241
aI233
aI263
aI262
asg12
I0
sa(dp4259
g5
I0
sg6
S'Unspecified'
p4260
sg8
S'person'
p4261
sg10
(lp4262
I272
aI210
aI294
aI231
asg12
I0
sa(dp4263
g5
I0
sg6
S'Unspecified'
p4264
sg8
S'person'
p4265
sg10
(lp4266
I268
aI245
aI299
aI279
asg12
I0
sa(dp4267
g5
I0
sg6
S'Unspecified'
p4268
sg8
S'person'
p4269
sg10
(lp4270
I305
aI258
aI338
aI286
asg12
I0
sa(dp4271
g5
I0
sg6
S'Unspecified'
p4272
sg8
S'person'
p4273
sg10
(lp4274
I338
aI224
aI366
aI249
asg12
I0
sa(dp4275
g5
I0
sg6
S'Unspecified'
p4276
sg8
S'person'
p4277
sg10
(lp4278
I355
aI197
aI375
aI216
asg12
I0
sa(dp4279
g5
I0
sg6
S'Unspecified'
p4280
sg8
S'person'
p4281
sg10
(lp4282
I395
aI223
aI416
aI243
asg12
I0
sa(dp4283
g5
I0
sg6
S'Unspecified'
p4284
sg8
S'person'
p4285
sg10
(lp4286
I419
aI225
aI447
aI253
asg12
I0
sa(dp4287
g5
I0
sg6
S'Unspecified'
p4288
sg8
S'person'
p4289
sg10
(lp4290
I404
aI173
aI424
aI191
asg12
I0
sa(dp4291
g5
I0
sg6
S'Unspecified'
p4292
sg8
S'person'
p4293
sg10
(lp4294
I450
aI169
aI469
aI185
asg12
I0
sa(dp4295
g5
I0
sg6
S'Unspecified'
p4296
sg8
S'person'
p4297
sg10
(lp4298
I478
aI172
aI495
aI190
asg12
I0
sa(dp4299
g5
I0
sg6
S'Unspecified'
p4300
sg8
S'person'
p4301
sg10
(lp4302
I491
aI162
aI509
aI178
asg12
I0
sa(dp4303
g5
I0
sg6
S'Unspecified'
p4304
sg8
S'person'
p4305
sg10
(lp4306
I505
aI148
aI519
aI162
asg12
I0
sa(dp4307
g5
I0
sg6
S'Unspecified'
p4308
sg8
S'person'
p4309
sg10
(lp4310
I560
aI159
aI580
aI176
asg12
I0
sa(dp4311
g5
I0
sg6
S'Unspecified'
p4312
sg8
S'person'
p4313
sg10
(lp4314
I543
aI179
aI561
aI198
asg12
I0
sa(dp4315
g5
I0
sg6
S'Unspecified'
p4316
sg8
S'person'
p4317
sg10
(lp4318
I557
aI182
aI577
aI203
asg12
I0
sa(dp4319
g5
I0
sg6
S'Unspecified'
p4320
sg8
S'person'
p4321
sg10
(lp4322
I601
aI181
aI622
aI202
asg12
I0
sa(dp4323
g5
I0
sg6
S'Unspecified'
p4324
sg8
S'person'
p4325
sg10
(lp4326
I597
aI157
aI617
aI182
asg12
I0
sa(dp4327
g5
I0
sg6
S'Unspecified'
p4328
sg8
S'person'
p4329
sg10
(lp4330
I618
aI163
aI641
aI182
asg12
I0
sa(dp4331
g5
I0
sg6
S'Unspecified'
p4332
sg8
S'person'
p4333
sg10
(lp4334
I619
aI142
aI635
aI158
asg12
I0
sa(dp4335
g5
I0
sg6
S'Unspecified'
p4336
sg8
S'person'
p4337
sg10
(lp4338
I631
aI141
aI655
aI158
asg12
I0
sa(dp4339
g5
I0
sg6
S'Unspecified'
p4340
sg8
S'person'
p4341
sg10
(lp4342
I672
aI133
aI694
aI154
asg12
I0
sa(dp4343
g5
I0
sg6
S'Unspecified'
p4344
sg8
S'person'
p4345
sg10
(lp4346
I691
aI139
aI710
aI159
asg12
I0
sa(dp4347
g5
I0
sg6
S'Unspecified'
p4348
sg8
S'person'
p4349
sg10
(lp4350
I710
aI142
aI723
aI163
asg12
I0
sa(dp4351
g5
I0
sg6
S'Unspecified'
p4352
sg8
S'person'
p4353
sg10
(lp4354
I735
aI137
aI754
aI156
asg12
I0
sa(dp4355
g5
I0
sg6
S'Unspecified'
p4356
sg8
S'person'
p4357
sg10
(lp4358
I754
aI141
aI772
aI160
asg12
I0
sa(dp4359
g5
I0
sg6
S'Unspecified'
p4360
sg8
S'person'
p4361
sg10
(lp4362
I707
aI164
aI724
aI185
asg12
I0
sa(dp4363
g5
I0
sg6
S'Unspecified'
p4364
sg8
S'person'
p4365
sg10
(lp4366
I659
aI164
aI679
aI180
asg12
I0
sa(dp4367
g5
I0
sg6
S'Unspecified'
p4368
sg8
S'person'
p4369
sg10
(lp4370
I490
aI212
aI517
aI235
asg12
I0
sa(dp4371
g5
I0
sg6
S'Unspecified'
p4372
sg8
S'person'
p4373
sg10
(lp4374
I537
aI214
aI561
aI239
asg12
I0
sa(dp4375
g5
I0
sg6
S'Unspecified'
p4376
sg8
S'person'
p4377
sg10
(lp4378
I469
aI230
aI497
aI260
asg12
I0
sa(dp4379
g5
I0
sg6
S'Unspecified'
p4380
sg8
S'person'
p4381
sg10
(lp4382
I417
aI201
aI437
aI220
asg12
I0
sa(dp4383
g5
I0
sg6
S'Unspecified'
p4384
sg8
S'person'
p4385
sg10
(lp4386
I495
aI267
aI530
aI304
asg12
I0
sa(dp4387
g5
I0
sg6
S'Unspecified'
p4388
sg8
S'person'
p4389
sg10
(lp4390
I583
aI237
aI607
aI265
asg12
I0
sa(dp4391
g5
I0
sg6
S'Unspecified'
p4392
sg8
S'person'
p4393
sg10
(lp4394
I584
aI265
aI613
aI301
asg12
I0
sa(dp4395
g5
I0
sg6
S'Unspecified'
p4396
sg8
S'person'
p4397
sg10
(lp4398
I652
aI222
aI681
aI250
asg12
I0
sa(dp4399
g5
I0
sg6
S'Unspecified'
p4400
sg8
S'person'
p4401
sg10
(lp4402
I657
aI256
aI688
aI283
asg12
I0
sa(dp4403
g5
I0
sg6
S'Unspecified'
p4404
sg8
S'person'
p4405
sg10
(lp4406
I644
aI300
aI677
aI343
asg12
I0
sa(dp4407
g5
I0
sg6
S'Unspecified'
p4408
sg8
S'person'
p4409
sg10
(lp4410
I691
aI314
aI726
aI353
asg12
I0
sa(dp4411
g5
I0
sg6
S'Unspecified'
p4412
sg8
S'person'
p4413
sg10
(lp4414
I799
aI268
aI829
aI303
asg12
I0
sa(dp4415
g5
I0
sg6
S'Unspecified'
p4416
sg8
S'person'
p4417
sg10
(lp4418
I774
aI349
aI815
aI397
asg12
I0
sa(dp4419
g5
I0
sg6
S'Unspecified'
p4420
sg8
S'person'
p4421
sg10
(lp4422
I864
aI283
aI897
aI319
asg12
I0
sa(dp4423
g5
I0
sg6
S'Unspecified'
p4424
sg8
S'person'
p4425
sg10
(lp4426
I919
aI331
aI954
aI377
asg12
I0
sa(dp4427
g5
I0
sg6
S'Unspecified'
p4428
sg8
S'person'
p4429
sg10
(lp4430
I953
aI307
aI989
aI347
asg12
I0
sa(dp4431
g5
I0
sg6
S'Unspecified'
p4432
sg8
S'person'
p4433
sg10
(lp4434
I1032
aI312
aI1069
aI351
asg12
I0
sa(dp4435
g5
I0
sg6
S'Unspecified'
p4436
sg8
S'person'
p4437
sg10
(lp4438
I969
aI249
aI997
aI285
asg12
I0
sa(dp4439
g5
I0
sg6
S'Unspecified'
p4440
sg8
S'person'
p4441
sg10
(lp4442
I916
aI237
aI938
aI264
asg12
I0
sa(dp4443
g5
I0
sg6
S'Unspecified'
p4444
sg8
S'person'
p4445
sg10
(lp4446
I929
aI222
aI954
aI250
asg12
I0
sa(dp4447
g5
I0
sg6
S'Unspecified'
p4448
sg8
S'person'
p4449
sg10
(lp4450
I920
aI197
aI940
aI222
asg12
I0
sa(dp4451
g5
I0
sg6
S'Unspecified'
p4452
sg8
S'person'
p4453
sg10
(lp4454
I913
aI157
aI930
aI176
asg12
I0
sa(dp4455
g5
I0
sg6
S'Unspecified'
p4456
sg8
S'person'
p4457
sg10
(lp4458
I882
aI157
aI899
aI173
asg12
I0
sa(dp4459
g5
I0
sg6
S'Unspecified'
p4460
sg8
S'person'
p4461
sg10
(lp4462
I834
aI157
aI857
aI182
asg12
I0
sa(dp4463
g5
I0
sg6
S'Unspecified'
p4464
sg8
S'person'
p4465
sg10
(lp4466
I857
aI170
aI886
aI197
asg12
I0
sa(dp4467
g5
I0
sg6
S'Unspecified'
p4468
sg8
S'person'
p4469
sg10
(lp4470
I791
aI194
aI819
aI221
asg12
I0
sa(dp4471
g5
I0
sg6
S'Unspecified'
p4472
sg8
S'person'
p4473
sg10
(lp4474
I788
aI166
aI807
aI190
asg12
I0
sa(dp4475
g5
I0
sg6
S'Unspecified'
p4476
sg8
S'person'
p4477
sg10
(lp4478
I753
aI208
aI778
aI234
asg12
I0
sa(dp4479
g5
I0
sg6
S'Unspecified'
p4480
sg8
S'person'
p4481
sg10
(lp4482
I744
aI179
aI764
aI201
asg12
I0
sa(dp4483
g5
I0
sg6
S'Unspecified'
p4484
sg8
S'person'
p4485
sg10
(lp4486
I701
aI234
aI730
aI269
asg12
I0
sa(dp4487
g5
I0
sg6
S'Unspecified'
p4488
sg8
S'person'
p4489
sg10
(lp4490
I733
aI244
aI760
aI276
asg12
I0
sa(dp4491
g5
I0
sg6
S'Unspecified'
p4492
sg8
S'person'
p4493
sg10
(lp4494
I765
aI242
aI794
aI266
asg12
I0
sa(dp4495
g5
I0
sg6
S'Unspecified'
p4496
sg8
S'person'
p4497
sg10
(lp4498
I695
aI197
aI725
aI226
asg12
I0
sa(dp4499
g5
I0
sg6
S'Unspecified'
p4500
sg8
S'person'
p4501
sg10
(lp4502
I954
aI165
aI970
aI182
asg12
I0
sa(dp4503
g5
I0
sg6
S'Unspecified'
p4504
sg8
S'person'
p4505
sg10
(lp4506
I970
aI179
aI988
aI204
asg12
I0
sa(dp4507
g5
I0
sg6
S'Unspecified'
p4508
sg8
S'person'
p4509
sg10
(lp4510
I994
aI166
aI1014
aI187
asg12
I0
sa(dp4511
g5
I0
sg6
S'Unspecified'
p4512
sg8
S'person'
p4513
sg10
(lp4514
I989
aI219
aI1012
aI247
asg12
I0
sa(dp4515
g5
I0
sg6
S'Unspecified'
p4516
sg8
S'person'
p4517
sg10
(lp4518
I963
aI213
aI988
aI241
asg12
I0
sa(dp4519
g5
I0
sg6
S'Unspecified'
p4520
sg8
S'person'
p4521
sg10
(lp4522
I1016
aI216
aI1035
aI247
asg12
I0
sa(dp4523
g5
I0
sg6
S'Unspecified'
p4524
sg8
S'person'
p4525
sg10
(lp4526
I1021
aI197
aI1041
aI216
asg12
I0
sa(dp4527
g5
I0
sg6
S'Unspecified'
p4528
sg8
S'person'
p4529
sg10
(lp4530
I1074
aI190
aI1087
aI206
asg12
I0
sa(dp4531
g5
I0
sg6
S'Unspecified'
p4532
sg8
S'person'
p4533
sg10
(lp4534
I1063
aI209
aI1086
aI231
asg12
I0
sa(dp4535
g5
I0
sg6
S'Unspecified'
p4536
sg8
S'person'
p4537
sg10
(lp4538
I1043
aI229
aI1065
aI250
asg12
I0
sa(dp4539
g5
I0
sg6
S'Unspecified'
p4540
sg8
S'person'
p4541
sg10
(lp4542
I1059
aI248
aI1084
aI270
asg12
I0
sasS'part2_001850'
p4543
(lp4544
(dp4545
g5
I0
sg6
S'Unspecified'
p4546
sg8
S'hat'
p4547
sg10
(lp4548
I553
aI125
aI645
aI243
asg12
I0
sa(dp4549
g5
I0
sg6
S'Unspecified'
p4550
sg8
S'hat'
p4551
sg10
(lp4552
I378
aI53
aI481
aI172
asg12
I0
sa(dp4553
g5
I0
sg6
S'Unspecified'
p4554
sg8
S'hat'
p4555
sg10
(lp4556
I540
aI7
aI631
aI103
asg12
I0
sasS'PartB_00675'
p4557
(lp4558
(dp4559
g5
I0
sg6
S'Unspecified'
p4560
sg8
S'person'
p4561
sg10
(lp4562
I1
aI158
aI78
aI270
asg12
I1
sa(dp4563
g5
I0
sg6
S'Unspecified'
p4564
sg8
S'person'
p4565
sg10
(lp4566
I187
aI31
aI252
aI101
asg12
I0
sa(dp4567
g5
I0
sg6
S'Unspecified'
p4568
sg8
S'person'
p4569
sg10
(lp4570
I407
aI16
aI469
aI91
asg12
I0
sa(dp4571
g5
I0
sg6
S'Unspecified'
p4572
sg8
S'person'
p4573
sg10
(lp4574
I321
aI204
aI429
aI327
asg12
I0
sa(dp4575
g5
I0
sg6
S'Unspecified'
p4576
sg8
S'person'
p4577
sg10
(lp4578
I602
aI147
aI705
aI244
asg12
I0
sasS'PartB_02155'
p4579
(lp4580
(dp4581
g5
I0
sg6
S'Unspecified'
p4582
sg8
S'person'
p4583
sg10
(lp4584
I120
aI155
aI169
aI204
asg12
I0
sa(dp4585
g5
I0
sg6
S'Unspecified'
p4586
sg8
S'person'
p4587
sg10
(lp4588
I316
aI208
aI338
aI236
asg12
I0
sa(dp4589
g5
I0
sg6
S'Unspecified'
p4590
sg8
S'person'
p4591
sg10
(lp4592
I390
aI217
aI412
aI244
asg12
I0
sa(dp4593
g5
I0
sg6
S'Unspecified'
p4594
sg8
S'person'
p4595
sg10
(lp4596
I421
aI198
aI438
aI217
asg12
I0
sa(dp4597
g5
I0
sg6
S'Unspecified'
p4598
sg8
S'person'
p4599
sg10
(lp4600
I440
aI205
aI463
aI234
asg12
I0
sa(dp4601
g5
I0
sg6
S'Unspecified'
p4602
sg8
S'person'
p4603
sg10
(lp4604
I481
aI196
aI498
aI218
asg12
I0
sa(dp4605
g5
I0
sg6
S'Unspecified'
p4606
sg8
S'person'
p4607
sg10
(lp4608
I522
aI195
aI542
aI221
asg12
I0
sa(dp4609
g5
I0
sg6
S'Unspecified'
p4610
sg8
S'person'
p4611
sg10
(lp4612
I526
aI188
aI540
aI202
asg12
I0
sa(dp4613
g5
I0
sg6
S'Unspecified'
p4614
sg8
S'person'
p4615
sg10
(lp4616
I575
aI183
aI591
aI208
asg12
I0
sa(dp4617
g5
I0
sg6
S'Unspecified'
p4618
sg8
S'person'
p4619
sg10
(lp4620
I603
aI202
aI618
aI220
asg12
I0
sa(dp4621
g5
I0
sg6
S'Unspecified'
p4622
sg8
S'person'
p4623
sg10
(lp4624
I559
aI231
aI588
aI265
asg12
I0
sa(dp4625
g5
I0
sg6
S'Unspecified'
p4626
sg8
S'person'
p4627
sg10
(lp4628
I653
aI212
aI679
aI242
asg12
I0
sa(dp4629
g5
I0
sg6
S'Unspecified'
p4630
sg8
S'person'
p4631
sg10
(lp4632
I650
aI184
aI665
aI207
asg12
I0
sa(dp4633
g5
I0
sg6
S'Unspecified'
p4634
sg8
S'person'
p4635
sg10
(lp4636
I633
aI174
aI650
aI198
asg12
I0
sa(dp4637
g5
I0
sg6
S'Unspecified'
p4638
sg8
S'person'
p4639
sg10
(lp4640
I687
aI180
aI702
aI199
asg12
I0
sa(dp4641
g5
I0
sg6
S'Unspecified'
p4642
sg8
S'person'
p4643
sg10
(lp4644
I697
aI192
aI717
aI217
asg12
I0
sa(dp4645
g5
I0
sg6
S'Unspecified'
p4646
sg8
S'person'
p4647
sg10
(lp4648
I696
aI212
aI725
aI245
asg12
I0
sa(dp4649
g5
I0
sg6
S'Unspecified'
p4650
sg8
S'person'
p4651
sg10
(lp4652
I757
aI185
aI787
aI215
asg12
I0
sa(dp4653
g5
I0
sg6
S'Unspecified'
p4654
sg8
S'person'
p4655
sg10
(lp4656
I774
aI175
aI796
aI200
asg12
I0
sa(dp4657
g5
I0
sg6
S'Unspecified'
p4658
sg8
S'person'
p4659
sg10
(lp4660
I802
aI202
aI838
aI241
asg12
I0
sa(dp4661
g5
I0
sg6
S'Unspecified'
p4662
sg8
S'person'
p4663
sg10
(lp4664
I809
aI181
aI837
aI216
asg12
I0
sa(dp4665
g5
I0
sg6
S'Unspecified'
p4666
sg8
S'person'
p4667
sg10
(lp4668
I812
aI164
aI828
aI184
asg12
I0
sa(dp4669
g5
I0
sg6
S'Unspecified'
p4670
sg8
S'person'
p4671
sg10
(lp4672
I838
aI164
aI853
aI182
asg12
I0
sa(dp4673
g5
I0
sg6
S'Unspecified'
p4674
sg8
S'person'
p4675
sg10
(lp4676
I875
aI164
aI891
aI188
asg12
I0
sa(dp4677
g5
I0
sg6
S'Unspecified'
p4678
sg8
S'person'
p4679
sg10
(lp4680
I892
aI182
aI917
aI213
asg12
I0
sa(dp4681
g5
I0
sg6
S'Unspecified'
p4682
sg8
S'person'
p4683
sg10
(lp4684
I912
aI175
aI931
aI198
asg12
I0
sa(dp4685
g5
I0
sg6
S'Unspecified'
p4686
sg8
S'person'
p4687
sg10
(lp4688
I893
aI164
aI911
aI182
asg12
I0
sa(dp4689
g5
I0
sg6
S'Unspecified'
p4690
sg8
S'person'
p4691
sg10
(lp4692
I944
aI169
aI964
aI193
asg12
I0
sa(dp4693
g5
I0
sg6
S'Unspecified'
p4694
sg8
S'person'
p4695
sg10
(lp4696
I966
aI189
aI999
aI219
asg12
I0
sa(dp4697
g5
I0
sg6
S'Unspecified'
p4698
sg8
S'person'
p4699
sg10
(lp4700
I978
aI177
aI998
aI201
asg12
I0
sa(dp4701
g5
I0
sg6
S'Unspecified'
p4702
sg8
S'person'
p4703
sg10
(lp4704
I1021
aI158
aI1043
aI181
asg12
I0
sa(dp4705
g5
I0
sg6
S'Unspecified'
p4706
sg8
S'person'
p4707
sg10
(lp4708
I1069
aI179
aI1097
aI208
asg12
I0
sa(dp4709
g5
I0
sg6
S'Unspecified'
p4710
sg8
S'person'
p4711
sg10
(lp4712
I1078
aI159
aI1101
aI186
asg12
I0
sa(dp4713
g5
I0
sg6
S'Unspecified'
p4714
sg8
S'person'
p4715
sg10
(lp4716
I1076
aI146
aI1098
aI167
asg12
I0
sa(dp4717
g5
I0
sg6
S'Unspecified'
p4718
sg8
S'person'
p4719
sg10
(lp4720
I1150
aI160
aI1176
aI188
asg12
I0
sa(dp4721
g5
I0
sg6
S'Unspecified'
p4722
sg8
S'person'
p4723
sg10
(lp4724
I1061
aI207
aI1121
aI255
asg12
I0
sa(dp4725
g5
I0
sg6
S'Unspecified'
p4726
sg8
S'person'
p4727
sg10
(lp4728
I873
aI277
aI944
aI367
asg12
I0
sa(dp4729
g5
I0
sg6
S'Unspecified'
p4730
sg8
S'person'
p4731
sg10
(lp4732
I856
aI250
aI907
aI313
asg12
I0
sasS'PartA_01475'
p4733
(lp4734
(dp4735
g5
I0
sg6
S'Unspecified'
p4736
sg8
S'person'
p4737
sg10
(lp4738
I124
aI193
aI150
aI220
asg12
I0
sa(dp4739
g5
I0
sg6
S'Unspecified'
p4740
sg8
S'person'
p4741
sg10
(lp4742
I167
aI263
aI219
aI317
asg12
I0
sa(dp4743
g5
I0
sg6
S'Unspecified'
p4744
sg8
S'person'
p4745
sg10
(lp4746
I197
aI225
aI232
aI263
asg12
I0
sa(dp4747
g5
I0
sg6
S'Unspecified'
p4748
sg8
S'person'
p4749
sg10
(lp4750
I201
aI174
aI221
aI201
asg12
I0
sa(dp4751
g5
I0
sg6
S'Unspecified'
p4752
sg8
S'person'
p4753
sg10
(lp4754
I227
aI169
aI256
aI203
asg12
I0
sa(dp4755
g5
I0
sg6
S'Unspecified'
p4756
sg8
S'person'
p4757
sg10
(lp4758
I251
aI150
aI273
aI175
asg12
I0
sa(dp4759
g5
I0
sg6
S'Unspecified'
p4760
sg8
S'person'
p4761
sg10
(lp4762
I259
aI199
aI298
aI243
asg12
I0
sa(dp4763
g5
I0
sg6
S'Unspecified'
p4764
sg8
S'person'
p4765
sg10
(lp4766
I366
aI95
aI391
aI120
asg12
I0
sa(dp4767
g5
I0
sg6
S'Unspecified'
p4768
sg8
S'person'
p4769
sg10
(lp4770
I443
aI90
aI472
aI119
asg12
I0
sa(dp4771
g5
I0
sg6
S'Unspecified'
p4772
sg8
S'person'
p4773
sg10
(lp4774
I575
aI100
aI594
aI128
asg12
I0
sa(dp4775
g5
I0
sg6
S'Unspecified'
p4776
sg8
S'person'
p4777
sg10
(lp4778
I710
aI53
aI732
aI77
asg12
I0
sa(dp4779
g5
I0
sg6
S'Unspecified'
p4780
sg8
S'person'
p4781
sg10
(lp4782
I808
aI34
aI827
aI56
asg12
I0
sa(dp4783
g5
I0
sg6
S'Unspecified'
p4784
sg8
S'person'
p4785
sg10
(lp4786
I743
aI101
aI767
aI129
asg12
I0
sa(dp4787
g5
I0
sg6
S'Unspecified'
p4788
sg8
S'person'
p4789
sg10
(lp4790
I854
aI160
aI911
aI221
asg12
I0
sa(dp4791
g5
I0
sg6
S'Unspecified'
p4792
sg8
S'person'
p4793
sg10
(lp4794
I861
aI137
aI905
aI182
asg12
I0
sasS'part2_000873'
p4795
(lp4796
(dp4797
g5
I0
sg6
S'Unspecified'
p4798
sg8
S'hat'
p4799
sg10
(lp4800
I384
aI49
aI509
aI167
asg12
I0
sasS'PartB_00564'
p4801
(lp4802
(dp4803
g5
I0
sg6
S'Unspecified'
p4804
sg8
S'person'
p4805
sg10
(lp4806
I43
aI46
aI143
aI167
asg12
I0
sa(dp4807
g5
I0
sg6
S'Unspecified'
p4808
sg8
S'person'
p4809
sg10
(lp4810
I138
aI51
aI210
aI144
asg12
I0
sa(dp4811
g5
I0
sg6
S'Unspecified'
p4812
sg8
S'person'
p4813
sg10
(lp4814
I282
aI9
aI352
aI109
asg12
I0
sa(dp4815
g5
I0
sg6
S'Unspecified'
p4816
sg8
S'person'
p4817
sg10
(lp4818
I367
aI45
aI427
aI131
asg12
I0
sa(dp4819
g5
I0
sg6
S'Unspecified'
p4820
sg8
S'person'
p4821
sg10
(lp4822
I426
aI2
aI533
aI134
asg12
I0
sasS'PartB_01759'
p4823
(lp4824
(dp4825
g5
I0
sg6
S'Unspecified'
p4826
sg8
S'person'
p4827
sg10
(lp4828
I16
aI84
aI33
aI102
asg12
I0
sa(dp4829
g5
I0
sg6
S'Unspecified'
p4830
sg8
S'person'
p4831
sg10
(lp4832
I38
aI64
aI62
aI87
asg12
I0
sa(dp4833
g5
I0
sg6
S'Unspecified'
p4834
sg8
S'person'
p4835
sg10
(lp4836
I67
aI71
aI85
aI89
asg12
I0
sa(dp4837
g5
I0
sg6
S'Unspecified'
p4838
sg8
S'person'
p4839
sg10
(lp4840
I93
aI77
aI107
aI92
asg12
I0
sa(dp4841
g5
I0
sg6
S'Unspecified'
p4842
sg8
S'person'
p4843
sg10
(lp4844
I98
aI89
aI117
aI109
asg12
I0
sa(dp4845
g5
I0
sg6
S'Unspecified'
p4846
sg8
S'person'
p4847
sg10
(lp4848
I93
aI58
aI105
aI72
asg12
I0
sa(dp4849
g5
I0
sg6
S'Unspecified'
p4850
sg8
S'person'
p4851
sg10
(lp4852
I107
aI59
aI116
aI70
asg12
I0
sa(dp4853
g5
I0
sg6
S'Unspecified'
p4854
sg8
S'person'
p4855
sg10
(lp4856
I119
aI56
aI129
aI68
asg12
I0
sa(dp4857
g5
I0
sg6
S'Unspecified'
p4858
sg8
S'person'
p4859
sg10
(lp4860
I128
aI61
aI142
aI76
asg12
I0
sa(dp4861
g5
I0
sg6
S'Unspecified'
p4862
sg8
S'person'
p4863
sg10
(lp4864
I146
aI65
aI157
aI81
asg12
I0
sa(dp4865
g5
I0
sg6
S'Unspecified'
p4866
sg8
S'person'
p4867
sg10
(lp4868
I154
aI61
aI165
aI74
asg12
I0
sa(dp4869
g5
I0
sg6
S'Unspecified'
p4870
sg8
S'person'
p4871
sg10
(lp4872
I145
aI85
aI160
aI104
asg12
I0
sa(dp4873
g5
I0
sg6
S'Unspecified'
p4874
sg8
S'person'
p4875
sg10
(lp4876
I156
aI115
aI173
aI136
asg12
I0
sa(dp4877
g5
I0
sg6
S'Unspecified'
p4878
sg8
S'person'
p4879
sg10
(lp4880
I179
aI75
aI193
aI93
asg12
I0
sa(dp4881
g5
I0
sg6
S'Unspecified'
p4882
sg8
S'person'
p4883
sg10
(lp4884
I173
aI137
aI189
aI156
asg12
I0
sa(dp4885
g5
I0
sg6
S'Unspecified'
p4886
sg8
S'person'
p4887
sg10
(lp4888
I202
aI126
aI219
aI145
asg12
I0
sa(dp4889
g5
I0
sg6
S'Unspecified'
p4890
sg8
S'person'
p4891
sg10
(lp4892
I211
aI118
aI224
aI134
asg12
I0
sa(dp4893
g5
I0
sg6
S'Unspecified'
p4894
sg8
S'person'
p4895
sg10
(lp4896
I222
aI22
aI240
aI44
asg12
I0
sasS'PartB_01929'
p4897
(lp4898
(dp4899
g5
I0
sg6
S'Unspecified'
p4900
sg8
S'person'
p4901
sg10
(lp4902
I41
aI102
aI101
aI175
asg12
I0
sa(dp4903
g5
I0
sg6
S'Unspecified'
p4904
sg8
S'person'
p4905
sg10
(lp4906
I98
aI29
aI150
aI97
asg12
I0
sa(dp4907
g5
I0
sg6
S'Unspecified'
p4908
sg8
S'person'
p4909
sg10
(lp4910
I158
aI13
aI215
aI79
asg12
I0
sa(dp4911
g5
I0
sg6
S'Unspecified'
p4912
sg8
S'person'
p4913
sg10
(lp4914
I285
aI123
aI337
aI177
asg12
I0
sa(dp4915
g5
I0
sg6
S'Unspecified'
p4916
sg8
S'person'
p4917
sg10
(lp4918
I293
aI37
aI340
aI83
asg12
I0
sasS'PartA_00494'
p4919
(lp4920
(dp4921
g5
I0
sg6
S'Unspecified'
p4922
sg8
S'person'
p4923
sg10
(lp4924
I160
aI282
aI205
aI325
asg12
I0
sa(dp4925
g5
I0
sg6
S'Unspecified'
p4926
sg8
S'person'
p4927
sg10
(lp4928
I289
aI139
aI306
aI159
asg12
I0
sa(dp4929
g5
I0
sg6
S'Unspecified'
p4930
sg8
S'person'
p4931
sg10
(lp4932
I281
aI161
aI300
aI179
asg12
I0
sa(dp4933
g5
I0
sg6
S'Unspecified'
p4934
sg8
S'person'
p4935
sg10
(lp4936
I338
aI125
aI355
aI144
asg12
I0
sa(dp4937
g5
I0
sg6
S'Unspecified'
p4938
sg8
S'person'
p4939
sg10
(lp4940
I344
aI138
aI359
aI157
asg12
I0
sa(dp4941
g5
I0
sg6
S'Unspecified'
p4942
sg8
S'person'
p4943
sg10
(lp4944
I352
aI130
aI367
aI147
asg12
I0
sa(dp4945
g5
I0
sg6
S'Unspecified'
p4946
sg8
S'person'
p4947
sg10
(lp4948
I375
aI141
aI398
aI164
asg12
I0
sa(dp4949
g5
I0
sg6
S'Unspecified'
p4950
sg8
S'person'
p4951
sg10
(lp4952
I335
aI161
aI358
aI181
asg12
I0
sa(dp4953
g5
I0
sg6
S'Unspecified'
p4954
sg8
S'person'
p4955
sg10
(lp4956
I376
aI129
aI393
aI149
asg12
I0
sa(dp4957
g5
I0
sg6
S'Unspecified'
p4958
sg8
S'person'
p4959
sg10
(lp4960
I404
aI107
aI419
aI128
asg12
I0
sa(dp4961
g5
I0
sg6
S'Unspecified'
p4962
sg8
S'person'
p4963
sg10
(lp4964
I414
aI125
aI434
aI147
asg12
I0
sa(dp4965
g5
I0
sg6
S'Unspecified'
p4966
sg8
S'person'
p4967
sg10
(lp4968
I412
aI148
aI430
aI175
asg12
I0
sa(dp4969
g5
I0
sg6
S'Unspecified'
p4970
sg8
S'person'
p4971
sg10
(lp4972
I423
aI150
aI446
aI178
asg12
I0
sa(dp4973
g5
I0
sg6
S'Unspecified'
p4974
sg8
S'person'
p4975
sg10
(lp4976
I430
aI105
aI445
aI123
asg12
I0
sa(dp4977
g5
I0
sg6
S'Unspecified'
p4978
sg8
S'person'
p4979
sg10
(lp4980
I445
aI107
aI459
aI129
asg12
I0
sa(dp4981
g5
I0
sg6
S'Unspecified'
p4982
sg8
S'person'
p4983
sg10
(lp4984
I470
aI101
aI486
aI117
asg12
I0
sa(dp4985
g5
I0
sg6
S'Unspecified'
p4986
sg8
S'person'
p4987
sg10
(lp4988
I475
aI105
aI490
aI124
asg12
I0
sa(dp4989
g5
I0
sg6
S'Unspecified'
p4990
sg8
S'person'
p4991
sg10
(lp4992
I470
aI130
aI493
aI156
asg12
I0
sa(dp4993
g5
I0
sg6
S'Unspecified'
p4994
sg8
S'person'
p4995
sg10
(lp4996
I503
aI132
aI529
aI159
asg12
I0
sa(dp4997
g5
I0
sg6
S'Unspecified'
p4998
sg8
S'person'
p4999
sg10
(lp5000
I488
aI87
aI500
aI101
asg12
I0
sa(dp5001
g5
I0
sg6
S'Unspecified'
p5002
sg8
S'person'
p5003
sg10
(lp5004
I510
aI81
aI524
aI97
asg12
I0
sa(dp5005
g5
I0
sg6
S'Unspecified'
p5006
sg8
S'person'
p5007
sg10
(lp5008
I508
aI112
aI525
aI130
asg12
I0
sa(dp5009
g5
I0
sg6
S'Unspecified'
p5010
sg8
S'person'
p5011
sg10
(lp5012
I525
aI102
aI544
aI123
asg12
I0
sa(dp5013
g5
I0
sg6
S'Unspecified'
p5014
sg8
S'person'
p5015
sg10
(lp5016
I521
aI119
aI543
aI140
asg12
I0
sa(dp5017
g5
I0
sg6
S'Unspecified'
p5018
sg8
S'person'
p5019
sg10
(lp5020
I541
aI120
aI565
aI143
asg12
I0
sa(dp5021
g5
I0
sg6
S'Unspecified'
p5022
sg8
S'person'
p5023
sg10
(lp5024
I561
aI96
aI583
aI121
asg12
I0
sa(dp5025
g5
I0
sg6
S'Unspecified'
p5026
sg8
S'person'
p5027
sg10
(lp5028
I596
aI71
aI611
aI89
asg12
I0
sa(dp5029
g5
I0
sg6
S'Unspecified'
p5030
sg8
S'person'
p5031
sg10
(lp5032
I589
aI86
aI607
aI106
asg12
I0
sa(dp5033
g5
I0
sg6
S'Unspecified'
p5034
sg8
S'person'
p5035
sg10
(lp5036
I608
aI96
aI627
aI123
asg12
I0
sa(dp5037
g5
I0
sg6
S'Unspecified'
p5038
sg8
S'person'
p5039
sg10
(lp5040
I633
aI84
aI648
aI99
asg12
I0
sa(dp5041
g5
I0
sg6
S'Unspecified'
p5042
sg8
S'person'
p5043
sg10
(lp5044
I619
aI76
aI633
aI94
asg12
I0
sa(dp5045
g5
I0
sg6
S'Unspecified'
p5046
sg8
S'person'
p5047
sg10
(lp5048
I671
aI72
aI683
aI89
asg12
I0
sa(dp5049
g5
I0
sg6
S'Unspecified'
p5050
sg8
S'person'
p5051
sg10
(lp5052
I706
aI72
aI719
aI89
asg12
I0
sa(dp5053
g5
I0
sg6
S'Unspecified'
p5054
sg8
S'person'
p5055
sg10
(lp5056
I681
aI83
aI698
aI100
asg12
I0
sa(dp5057
g5
I0
sg6
S'Unspecified'
p5058
sg8
S'person'
p5059
sg10
(lp5060
I654
aI86
aI667
aI104
asg12
I0
sa(dp5061
g5
I0
sg6
S'Unspecified'
p5062
sg8
S'person'
p5063
sg10
(lp5064
I654
aI113
aI675
aI138
asg12
I0
sa(dp5065
g5
I0
sg6
S'Unspecified'
p5066
sg8
S'person'
p5067
sg10
(lp5068
I611
aI127
aI636
aI153
asg12
I0
sa(dp5069
g5
I0
sg6
S'Unspecified'
p5070
sg8
S'person'
p5071
sg10
(lp5072
I544
aI167
aI572
aI198
asg12
I0
sa(dp5073
g5
I0
sg6
S'Unspecified'
p5074
sg8
S'person'
p5075
sg10
(lp5076
I615
aI166
aI643
aI198
asg12
I0
sa(dp5077
g5
I0
sg6
S'Unspecified'
p5078
sg8
S'person'
p5079
sg10
(lp5080
I658
aI135
aI681
aI164
asg12
I0
sa(dp5081
g5
I0
sg6
S'Unspecified'
p5082
sg8
S'person'
p5083
sg10
(lp5084
I669
aI174
aI699
aI208
asg12
I0
sa(dp5085
g5
I0
sg6
S'Unspecified'
p5086
sg8
S'person'
p5087
sg10
(lp5088
I700
aI116
aI721
aI140
asg12
I0
sa(dp5089
g5
I0
sg6
S'Unspecified'
p5090
sg8
S'person'
p5091
sg10
(lp5092
I725
aI118
aI743
aI143
asg12
I0
sa(dp5093
g5
I0
sg6
S'Unspecified'
p5094
sg8
S'person'
p5095
sg10
(lp5096
I736
aI85
aI752
aI103
asg12
I0
sa(dp5097
g5
I0
sg6
S'Unspecified'
p5098
sg8
S'person'
p5099
sg10
(lp5100
I749
aI79
aI764
aI98
asg12
I0
sa(dp5101
g5
I0
sg6
S'Unspecified'
p5102
sg8
S'person'
p5103
sg10
(lp5104
I773
aI75
aI787
aI92
asg12
I0
sa(dp5105
g5
I0
sg6
S'Unspecified'
p5106
sg8
S'person'
p5107
sg10
(lp5108
I774
aI93
aI791
aI114
asg12
I0
sa(dp5109
g5
I0
sg6
S'Unspecified'
p5110
sg8
S'person'
p5111
sg10
(lp5112
I769
aI112
aI787
aI139
asg12
I0
sa(dp5113
g5
I0
sg6
S'Unspecified'
p5114
sg8
S'person'
p5115
sg10
(lp5116
I745
aI124
aI767
aI153
asg12
I0
sa(dp5117
g5
I0
sg6
S'Unspecified'
p5118
sg8
S'person'
p5119
sg10
(lp5120
I711
aI137
aI732
aI166
asg12
I0
sa(dp5121
g5
I0
sg6
S'Unspecified'
p5122
sg8
S'person'
p5123
sg10
(lp5124
I752
aI151
aI781
aI183
asg12
I0
sa(dp5125
g5
I0
sg6
S'Unspecified'
p5126
sg8
S'person'
p5127
sg10
(lp5128
I809
aI75
aI823
aI91
asg12
I0
sa(dp5129
g5
I0
sg6
S'Unspecified'
p5130
sg8
S'person'
p5131
sg10
(lp5132
I814
aI88
aI829
aI110
asg12
I0
sa(dp5133
g5
I0
sg6
S'Unspecified'
p5134
sg8
S'person'
p5135
sg10
(lp5136
I832
aI86
aI846
aI105
asg12
I0
sa(dp5137
g5
I0
sg6
S'Unspecified'
p5138
sg8
S'person'
p5139
sg10
(lp5140
I850
aI92
aI868
aI113
asg12
I0
sa(dp5141
g5
I0
sg6
S'Unspecified'
p5142
sg8
S'person'
p5143
sg10
(lp5144
I880
aI88
aI894
aI105
asg12
I0
sa(dp5145
g5
I0
sg6
S'Unspecified'
p5146
sg8
S'person'
p5147
sg10
(lp5148
I896
aI96
aI912
aI117
asg12
I0
sa(dp5149
g5
I0
sg6
S'Unspecified'
p5150
sg8
S'person'
p5151
sg10
(lp5152
I896
aI113
aI911
aI136
asg12
I0
sa(dp5153
g5
I0
sg6
S'Unspecified'
p5154
sg8
S'person'
p5155
sg10
(lp5156
I951
aI92
aI963
aI110
asg12
I0
sa(dp5157
g5
I0
sg6
S'Unspecified'
p5158
sg8
S'person'
p5159
sg10
(lp5160
I940
aI98
aI953
aI117
asg12
I0
sa(dp5161
g5
I0
sg6
S'Unspecified'
p5162
sg8
S'person'
p5163
sg10
(lp5164
I935
aI111
aI953
aI132
asg12
I0
sa(dp5165
g5
I0
sg6
S'Unspecified'
p5166
sg8
S'person'
p5167
sg10
(lp5168
I968
aI126
aI989
aI156
asg12
I0
sa(dp5169
g5
I0
sg6
S'Unspecified'
p5170
sg8
S'person'
p5171
sg10
(lp5172
I976
aI144
aI998
aI176
asg12
I0
sa(dp5173
g5
I0
sg6
S'Unspecified'
p5174
sg8
S'person'
p5175
sg10
(lp5176
I909
aI143
aI929
aI172
asg12
I0
sa(dp5177
g5
I0
sg6
S'Unspecified'
p5178
sg8
S'person'
p5179
sg10
(lp5180
I875
aI127
aI895
aI152
asg12
I0
sa(dp5181
g5
I0
sg6
S'Unspecified'
p5182
sg8
S'person'
p5183
sg10
(lp5184
I892
aI178
aI917
aI212
asg12
I0
sa(dp5185
g5
I0
sg6
S'Unspecified'
p5186
sg8
S'person'
p5187
sg10
(lp5188
I816
aI112
aI835
aI141
asg12
I0
sa(dp5189
g5
I0
sg6
S'Unspecified'
p5190
sg8
S'person'
p5191
sg10
(lp5192
I800
aI128
aI823
aI161
asg12
I0
sa(dp5193
g5
I0
sg6
S'Unspecified'
p5194
sg8
S'person'
p5195
sg10
(lp5196
I828
aI142
aI851
aI175
asg12
I0
sasS'PartA_01506'
p5197
(lp5198
(dp5199
g5
I0
sg6
S'Unspecified'
p5200
sg8
S'person'
p5201
sg10
(lp5202
I187
aI219
aI244
aI275
asg12
I0
sa(dp5203
g5
I0
sg6
S'Unspecified'
p5204
sg8
S'person'
p5205
sg10
(lp5206
I290
aI152
aI310
aI173
asg12
I0
sa(dp5207
g5
I0
sg6
S'Unspecified'
p5208
sg8
S'person'
p5209
sg10
(lp5210
I313
aI157
aI333
aI179
asg12
I0
sa(dp5211
g5
I0
sg6
S'Unspecified'
p5212
sg8
S'person'
p5213
sg10
(lp5214
I311
aI138
aI333
aI160
asg12
I0
sa(dp5215
g5
I0
sg6
S'Unspecified'
p5216
sg8
S'person'
p5217
sg10
(lp5218
I367
aI156
aI389
aI179
asg12
I0
sa(dp5219
g5
I0
sg6
S'Unspecified'
p5220
sg8
S'person'
p5221
sg10
(lp5222
I391
aI159
aI417
aI185
asg12
I0
sa(dp5223
g5
I0
sg6
S'Unspecified'
p5224
sg8
S'person'
p5225
sg10
(lp5226
I390
aI113
aI409
aI132
asg12
I0
sa(dp5227
g5
I0
sg6
S'Unspecified'
p5228
sg8
S'person'
p5229
sg10
(lp5230
I413
aI125
aI435
aI151
asg12
I0
sa(dp5231
g5
I0
sg6
S'Unspecified'
p5232
sg8
S'person'
p5233
sg10
(lp5234
I428
aI99
aI449
aI117
asg12
I0
sa(dp5235
g5
I0
sg6
S'Unspecified'
p5236
sg8
S'person'
p5237
sg10
(lp5238
I455
aI101
aI474
aI124
asg12
I0
sa(dp5239
g5
I0
sg6
S'Unspecified'
p5240
sg8
S'person'
p5241
sg10
(lp5242
I470
aI127
aI489
aI154
asg12
I0
sa(dp5243
g5
I0
sg6
S'Unspecified'
p5244
sg8
S'person'
p5245
sg10
(lp5246
I499
aI130
aI525
aI157
asg12
I0
sa(dp5247
g5
I0
sg6
S'Unspecified'
p5248
sg8
S'person'
p5249
sg10
(lp5250
I482
aI105
aI501
aI127
asg12
I0
sa(dp5251
g5
I0
sg6
S'Unspecified'
p5252
sg8
S'person'
p5253
sg10
(lp5254
I501
aI79
aI513
aI92
asg12
I0
sa(dp5255
g5
I0
sg6
S'Unspecified'
p5256
sg8
S'person'
p5257
sg10
(lp5258
I507
aI87
aI521
aI105
asg12
I0
sa(dp5259
g5
I0
sg6
S'Unspecified'
p5260
sg8
S'person'
p5261
sg10
(lp5262
I512
aI108
aI531
aI130
asg12
I0
sa(dp5263
g5
I0
sg6
S'Unspecified'
p5264
sg8
S'person'
p5265
sg10
(lp5266
I522
aI110
aI542
aI132
asg12
I0
sa(dp5267
g5
I0
sg6
S'Unspecified'
p5268
sg8
S'person'
p5269
sg10
(lp5270
I554
aI108
aI576
aI134
asg12
I0
sa(dp5271
g5
I0
sg6
S'Unspecified'
p5272
sg8
S'person'
p5273
sg10
(lp5274
I550
aI86
aI565
aI105
asg12
I0
sa(dp5275
g5
I0
sg6
S'Unspecified'
p5276
sg8
S'person'
p5277
sg10
(lp5278
I546
aI75
aI557
aI88
asg12
I0
sa(dp5279
g5
I0
sg6
S'Unspecified'
p5280
sg8
S'person'
p5281
sg10
(lp5282
I579
aI77
aI595
aI92
asg12
I0
sa(dp5283
g5
I0
sg6
S'Unspecified'
p5284
sg8
S'person'
p5285
sg10
(lp5286
I596
aI71
aI608
aI87
asg12
I0
sa(dp5287
g5
I0
sg6
S'Unspecified'
p5288
sg8
S'person'
p5289
sg10
(lp5290
I601
aI78
aI617
aI96
asg12
I0
sa(dp5291
g5
I0
sg6
S'Unspecified'
p5292
sg8
S'person'
p5293
sg10
(lp5294
I621
aI80
aI637
aI95
asg12
I0
sa(dp5295
g5
I0
sg6
S'Unspecified'
p5296
sg8
S'person'
p5297
sg10
(lp5298
I628
aI69
aI641
aI86
asg12
I0
sa(dp5299
g5
I0
sg6
S'Unspecified'
p5300
sg8
S'person'
p5301
sg10
(lp5302
I638
aI59
aI652
aI72
asg12
I0
sa(dp5303
g5
I0
sg6
S'Unspecified'
p5304
sg8
S'person'
p5305
sg10
(lp5306
I660
aI59
aI674
aI76
asg12
I0
sa(dp5307
g5
I0
sg6
S'Unspecified'
p5308
sg8
S'person'
p5309
sg10
(lp5310
I633
aI99
aI651
aI118
asg12
I0
sa(dp5311
g5
I0
sg6
S'Unspecified'
p5312
sg8
S'person'
p5313
sg10
(lp5314
I655
aI82
aI672
aI100
asg12
I0
sa(dp5315
g5
I0
sg6
S'Unspecified'
p5316
sg8
S'person'
p5317
sg10
(lp5318
I685
aI77
aI702
aI96
asg12
I0
sa(dp5319
g5
I0
sg6
S'Unspecified'
p5320
sg8
S'person'
p5321
sg10
(lp5322
I690
aI60
aI703
aI75
asg12
I0
sa(dp5323
g5
I0
sg6
S'Unspecified'
p5324
sg8
S'person'
p5325
sg10
(lp5326
I718
aI59
aI734
aI76
asg12
I0
sa(dp5327
g5
I0
sg6
S'Unspecified'
p5328
sg8
S'person'
p5329
sg10
(lp5330
I740
aI63
aI756
aI81
asg12
I0
sa(dp5331
g5
I0
sg6
S'Unspecified'
p5332
sg8
S'person'
p5333
sg10
(lp5334
I527
aI166
aI555
aI200
asg12
I0
sa(dp5335
g5
I0
sg6
S'Unspecified'
p5336
sg8
S'person'
p5337
sg10
(lp5338
I567
aI182
aI600
aI216
asg12
I0
sa(dp5339
g5
I0
sg6
S'Unspecified'
p5340
sg8
S'person'
p5341
sg10
(lp5342
I599
aI149
aI626
aI180
asg12
I0
sa(dp5343
g5
I0
sg6
S'Unspecified'
p5344
sg8
S'person'
p5345
sg10
(lp5346
I647
aI123
aI669
aI148
asg12
I0
sa(dp5347
g5
I0
sg6
S'Unspecified'
p5348
sg8
S'person'
p5349
sg10
(lp5350
I660
aI139
aI686
aI168
asg12
I0
sa(dp5351
g5
I0
sg6
S'Unspecified'
p5352
sg8
S'person'
p5353
sg10
(lp5354
I620
aI181
aI654
aI217
asg12
I0
sa(dp5355
g5
I0
sg6
S'Unspecified'
p5356
sg8
S'person'
p5357
sg10
(lp5358
I700
aI116
aI724
aI141
asg12
I0
sa(dp5359
g5
I0
sg6
S'Unspecified'
p5360
sg8
S'person'
p5361
sg10
(lp5362
I698
aI96
aI717
aI121
asg12
I0
sa(dp5363
g5
I0
sg6
S'Unspecified'
p5364
sg8
S'person'
p5365
sg10
(lp5366
I729
aI89
aI745
aI109
asg12
I0
sa(dp5367
g5
I0
sg6
S'Unspecified'
p5368
sg8
S'person'
p5369
sg10
(lp5370
I751
aI104
aI773
aI127
asg12
I0
sa(dp5371
g5
I0
sg6
S'Unspecified'
p5372
sg8
S'person'
p5373
sg10
(lp5374
I777
aI97
aI797
aI117
asg12
I0
sa(dp5375
g5
I0
sg6
S'Unspecified'
p5376
sg8
S'person'
p5377
sg10
(lp5378
I778
aI112
aI795
aI137
asg12
I0
sa(dp5379
g5
I0
sg6
S'Unspecified'
p5380
sg8
S'person'
p5381
sg10
(lp5382
I773
aI137
aI801
aI171
asg12
I0
sa(dp5383
g5
I0
sg6
S'Unspecified'
p5384
sg8
S'person'
p5385
sg10
(lp5386
I753
aI131
aI776
aI161
asg12
I0
sa(dp5387
g5
I0
sg6
S'Unspecified'
p5388
sg8
S'person'
p5389
sg10
(lp5390
I734
aI179
aI770
aI218
asg12
I0
sa(dp5391
g5
I0
sg6
S'Unspecified'
p5392
sg8
S'person'
p5393
sg10
(lp5394
I782
aI202
aI819
aI251
asg12
I0
sa(dp5395
g5
I0
sg6
S'Unspecified'
p5396
sg8
S'person'
p5397
sg10
(lp5398
I842
aI216
aI878
aI263
asg12
I0
sa(dp5399
g5
I0
sg6
S'Unspecified'
p5400
sg8
S'person'
p5401
sg10
(lp5402
I946
aI239
aI992
aI290
asg12
I0
sa(dp5403
g5
I0
sg6
S'Unspecified'
p5404
sg8
S'person'
p5405
sg10
(lp5406
I885
aI167
aI916
aI202
asg12
I0
sa(dp5407
g5
I0
sg6
S'Unspecified'
p5408
sg8
S'person'
p5409
sg10
(lp5410
I814
aI152
aI843
aI188
asg12
I0
sa(dp5411
g5
I0
sg6
S'Unspecified'
p5412
sg8
S'person'
p5413
sg10
(lp5414
I805
aI118
aI830
aI145
asg12
I0
sa(dp5415
g5
I0
sg6
S'Unspecified'
p5416
sg8
S'person'
p5417
sg10
(lp5418
I829
aI110
aI851
aI137
asg12
I0
sa(dp5419
g5
I0
sg6
S'Unspecified'
p5420
sg8
S'person'
p5421
sg10
(lp5422
I803
aI77
aI822
aI98
asg12
I0
sa(dp5423
g5
I0
sg6
S'Unspecified'
p5424
sg8
S'person'
p5425
sg10
(lp5426
I790
aI67
aI809
aI87
asg12
I0
sa(dp5427
g5
I0
sg6
S'Unspecified'
p5428
sg8
S'person'
p5429
sg10
(lp5430
I819
aI72
aI833
aI93
asg12
I0
sa(dp5431
g5
I0
sg6
S'Unspecified'
p5432
sg8
S'person'
p5433
sg10
(lp5434
I837
aI77
aI854
aI98
asg12
I0
sa(dp5435
g5
I0
sg6
S'Unspecified'
p5436
sg8
S'person'
p5437
sg10
(lp5438
I864
aI81
aI884
aI101
asg12
I0
sa(dp5439
g5
I0
sg6
S'Unspecified'
p5440
sg8
S'person'
p5441
sg10
(lp5442
I887
aI77
aI903
aI97
asg12
I0
sa(dp5443
g5
I0
sg6
S'Unspecified'
p5444
sg8
S'person'
p5445
sg10
(lp5446
I904
aI69
aI919
aI89
asg12
I0
sa(dp5447
g5
I0
sg6
S'Unspecified'
p5448
sg8
S'person'
p5449
sg10
(lp5450
I915
aI83
aI931
aI102
asg12
I0
sa(dp5451
g5
I0
sg6
S'Unspecified'
p5452
sg8
S'person'
p5453
sg10
(lp5454
I909
aI92
aI923
aI115
asg12
I0
sa(dp5455
g5
I0
sg6
S'Unspecified'
p5456
sg8
S'person'
p5457
sg10
(lp5458
I885
aI110
aI905
aI140
asg12
I0
sa(dp5459
g5
I0
sg6
S'Unspecified'
p5460
sg8
S'person'
p5461
sg10
(lp5462
I859
aI142
aI884
aI175
asg12
I0
sa(dp5463
g5
I0
sg6
S'Unspecified'
p5464
sg8
S'person'
p5465
sg10
(lp5466
I916
aI141
aI943
aI173
asg12
I0
sa(dp5467
g5
I0
sg6
S'Unspecified'
p5468
sg8
S'person'
p5469
sg10
(lp5470
I957
aI169
aI995
aI211
asg12
I0
sa(dp5471
g5
I0
sg6
S'Unspecified'
p5472
sg8
S'person'
p5473
sg10
(lp5474
I976
aI148
aI1000
aI176
asg12
I0
sa(dp5475
g5
I0
sg6
S'Unspecified'
p5476
sg8
S'person'
p5477
sg10
(lp5478
I991
aI122
aI1011
aI151
asg12
I0
sa(dp5479
g5
I0
sg6
S'Unspecified'
p5480
sg8
S'person'
p5481
sg10
(lp5482
I996
aI91
aI1008
aI109
asg12
I0
sa(dp5483
g5
I0
sg6
S'Unspecified'
p5484
sg8
S'person'
p5485
sg10
(lp5486
I941
aI113
aI962
aI134
asg12
I0
sa(dp5487
g5
I0
sg6
S'Unspecified'
p5488
sg8
S'person'
p5489
sg10
(lp5490
I947
aI93
aI968
aI117
asg12
I0
sa(dp5491
g5
I0
sg6
S'Unspecified'
p5492
sg8
S'person'
p5493
sg10
(lp5494
I932
aI73
aI946
aI90
asg12
I0
sasS'PartA_00161'
p5495
(lp5496
(dp5497
g5
I0
sg6
S'Unspecified'
p5498
sg8
S'person'
p5499
sg10
(lp5500
I314
aI190
aI333
aI213
asg12
I0
sa(dp5501
g5
I0
sg6
S'Unspecified'
p5502
sg8
S'person'
p5503
sg10
(lp5504
I1019
aI246
aI1055
aI308
asg12
I0
sa(dp5505
g5
I0
sg6
S'Unspecified'
p5506
sg8
S'person'
p5507
sg10
(lp5508
I1028
aI60
aI1046
aI81
asg12
I0
sa(dp5509
g5
I0
sg6
S'Unspecified'
p5510
sg8
S'person'
p5511
sg10
(lp5512
I1147
aI63
aI1165
aI87
asg12
I0
sasS'PartB_01231'
p5513
(lp5514
(dp5515
g5
I0
sg6
S'Unspecified'
p5516
sg8
S'person'
p5517
sg10
(lp5518
I28
aI404
aI80
aI457
asg12
I0
sa(dp5519
g5
I0
sg6
S'Unspecified'
p5520
sg8
S'person'
p5521
sg10
(lp5522
I93
aI393
aI137
aI440
asg12
I0
sa(dp5523
g5
I0
sg6
S'Unspecified'
p5524
sg8
S'person'
p5525
sg10
(lp5526
I181
aI381
aI219
aI418
asg12
I0
sa(dp5527
g5
I0
sg6
S'Unspecified'
p5528
sg8
S'person'
p5529
sg10
(lp5530
I159
aI475
aI262
aI577
asg12
I0
sa(dp5531
g5
I0
sg6
S'Unspecified'
p5532
sg8
S'person'
p5533
sg10
(lp5534
I217
aI436
aI290
aI512
asg12
I0
sa(dp5535
g5
I0
sg6
S'Unspecified'
p5536
sg8
S'person'
p5537
sg10
(lp5538
I276
aI391
aI333
aI444
asg12
I0
sa(dp5539
g5
I0
sg6
S'Unspecified'
p5540
sg8
S'person'
p5541
sg10
(lp5542
I335
aI371
aI383
aI413
asg12
I0
sa(dp5543
g5
I0
sg6
S'Unspecified'
p5544
sg8
S'person'
p5545
sg10
(lp5546
I635
aI477
aI718
aI566
asg12
I0
sa(dp5547
g5
I0
sg6
S'Unspecified'
p5548
sg8
S'person'
p5549
sg10
(lp5550
I570
aI420
aI631
aI492
asg12
I0
sa(dp5551
g5
I0
sg6
S'Unspecified'
p5552
sg8
S'person'
p5553
sg10
(lp5554
I560
aI406
aI606
aI450
asg12
I0
sa(dp5555
g5
I0
sg6
S'Unspecified'
p5556
sg8
S'person'
p5557
sg10
(lp5558
I515
aI383
aI559
aI432
asg12
I0
sa(dp5559
g5
I0
sg6
S'Unspecified'
p5560
sg8
S'person'
p5561
sg10
(lp5562
I713
aI377
aI754
aI417
asg12
I0
sa(dp5563
g5
I0
sg6
S'Unspecified'
p5564
sg8
S'person'
p5565
sg10
(lp5566
I736
aI382
aI782
aI427
asg12
I0
sa(dp5567
g5
I0
sg6
S'Unspecified'
p5568
sg8
S'person'
p5569
sg10
(lp5570
I806
aI411
aI871
aI465
asg12
I0
sasS'PartB_01219'
p5571
(lp5572
(dp5573
g5
I0
sg6
S'Unspecified'
p5574
sg8
S'person'
p5575
sg10
(lp5576
I342
aI282
aI400
aI347
asg12
I0
sa(dp5577
g5
I0
sg6
S'Unspecified'
p5578
sg8
S'person'
p5579
sg10
(lp5580
I523
aI281
aI584
aI350
asg12
I0
sa(dp5581
g5
I0
sg6
S'Unspecified'
p5582
sg8
S'person'
p5583
sg10
(lp5584
I577
aI312
aI628
aI370
asg12
I0
sa(dp5585
g5
I0
sg6
S'Unspecified'
p5586
sg8
S'person'
p5587
sg10
(lp5588
I677
aI292
aI724
aI338
asg12
I0
sasS'PartB_00038'
p5589
(lp5590
(dp5591
g5
I0
sg6
S'Unspecified'
p5592
sg8
S'person'
p5593
sg10
(lp5594
I229
aI29
aI466
aI367
asg12
I0
sa(dp5595
g5
I0
sg6
S'Unspecified'
p5596
sg8
S'person'
p5597
sg10
(lp5598
I515
aI146
aI665
aI332
asg12
I0
sa(dp5599
g5
I0
sg6
S'Unspecified'
p5600
sg8
S'person'
p5601
sg10
(lp5602
I735
aI134
aI821
aI240
asg12
I0
sa(dp5603
g5
I0
sg6
S'Unspecified'
p5604
sg8
S'person'
p5605
sg10
(lp5606
I895
aI109
aI1163
aI378
asg12
I0
sasS'PartB_00209'
p5607
(lp5608
(dp5609
g5
I0
sg6
S'Unspecified'
p5610
sg8
S'person'
p5611
sg10
(lp5612
I52
aI242
aI121
aI301
asg12
I0
sa(dp5613
g5
I0
sg6
S'Unspecified'
p5614
sg8
S'person'
p5615
sg10
(lp5616
I124
aI191
aI160
aI233
asg12
I0
sa(dp5617
g5
I0
sg6
S'Unspecified'
p5618
sg8
S'person'
p5619
sg10
(lp5620
I195
aI198
aI230
aI247
asg12
I0
sa(dp5621
g5
I0
sg6
S'Unspecified'
p5622
sg8
S'person'
p5623
sg10
(lp5624
I253
aI191
aI282
aI222
asg12
I0
sa(dp5625
g5
I0
sg6
S'Unspecified'
p5626
sg8
S'person'
p5627
sg10
(lp5628
I302
aI237
aI347
aI291
asg12
I0
sa(dp5629
g5
I0
sg6
S'Unspecified'
p5630
sg8
S'person'
p5631
sg10
(lp5632
I314
aI205
aI352
aI243
asg12
I0
sa(dp5633
g5
I0
sg6
S'Unspecified'
p5634
sg8
S'person'
p5635
sg10
(lp5636
I368
aI201
aI389
aI228
asg12
I0
sa(dp5637
g5
I0
sg6
S'Unspecified'
p5638
sg8
S'person'
p5639
sg10
(lp5640
I388
aI238
aI452
aI301
asg12
I0
sa(dp5641
g5
I0
sg6
S'Unspecified'
p5642
sg8
S'person'
p5643
sg10
(lp5644
I440
aI208
aI471
aI243
asg12
I0
sa(dp5645
g5
I0
sg6
S'Unspecified'
p5646
sg8
S'person'
p5647
sg10
(lp5648
I475
aI198
aI511
aI225
asg12
I0
sa(dp5649
g5
I0
sg6
S'Unspecified'
p5650
sg8
S'person'
p5651
sg10
(lp5652
I486
aI226
aI534
aI278
asg12
I0
sa(dp5653
g5
I0
sg6
S'Unspecified'
p5654
sg8
S'person'
p5655
sg10
(lp5656
I457
aI187
aI479
aI208
asg12
I0
sa(dp5657
g5
I0
sg6
S'Unspecified'
p5658
sg8
S'person'
p5659
sg10
(lp5660
I416
aI196
aI445
aI220
asg12
I0
sa(dp5661
g5
I0
sg6
S'Unspecified'
p5662
sg8
S'person'
p5663
sg10
(lp5664
I411
aI179
aI431
aI200
asg12
I0
sa(dp5665
g5
I0
sg6
S'Unspecified'
p5666
sg8
S'person'
p5667
sg10
(lp5668
I382
aI212
aI421
aI251
asg12
I0
sa(dp5669
g5
I0
sg6
S'Unspecified'
p5670
sg8
S'person'
p5671
sg10
(lp5672
I366
aI190
aI392
aI214
asg12
I0
sa(dp5673
g5
I0
sg6
S'Unspecified'
p5674
sg8
S'person'
p5675
sg10
(lp5676
I279
aI167
aI296
aI184
asg12
I0
sa(dp5677
g5
I0
sg6
S'Unspecified'
p5678
sg8
S'person'
p5679
sg10
(lp5680
I256
aI166
aI275
aI183
asg12
I0
sa(dp5681
g5
I0
sg6
S'Unspecified'
p5682
sg8
S'person'
p5683
sg10
(lp5684
I262
aI139
aI274
aI152
asg12
I0
sa(dp5685
g5
I0
sg6
S'Unspecified'
p5686
sg8
S'person'
p5687
sg10
(lp5688
I229
aI163
aI245
aI177
asg12
I0
sa(dp5689
g5
I0
sg6
S'Unspecified'
p5690
sg8
S'person'
p5691
sg10
(lp5692
I226
aI172
aI239
aI189
asg12
I0
sa(dp5693
g5
I0
sg6
S'Unspecified'
p5694
sg8
S'person'
p5695
sg10
(lp5696
I215
aI160
aI227
aI175
asg12
I0
sa(dp5697
g5
I0
sg6
S'Unspecified'
p5698
sg8
S'person'
p5699
sg10
(lp5700
I201
aI169
aI218
aI186
asg12
I0
sa(dp5701
g5
I0
sg6
S'Unspecified'
p5702
sg8
S'person'
p5703
sg10
(lp5704
I175
aI171
aI192
aI186
asg12
I0
sa(dp5705
g5
I0
sg6
S'Unspecified'
p5706
sg8
S'person'
p5707
sg10
(lp5708
I183
aI161
aI198
aI174
asg12
I0
sa(dp5709
g5
I0
sg6
S'Unspecified'
p5710
sg8
S'person'
p5711
sg10
(lp5712
I165
aI155
aI181
aI174
asg12
I0
sa(dp5713
g5
I0
sg6
S'Unspecified'
p5714
sg8
S'person'
p5715
sg10
(lp5716
I149
aI158
aI166
aI175
asg12
I0
sa(dp5717
g5
I0
sg6
S'Unspecified'
p5718
sg8
S'person'
p5719
sg10
(lp5720
I133
aI161
aI145
aI176
asg12
I0
sa(dp5721
g5
I0
sg6
S'Unspecified'
p5722
sg8
S'person'
p5723
sg10
(lp5724
I137
aI151
aI148
aI164
asg12
I0
sa(dp5725
g5
I0
sg6
S'Unspecified'
p5726
sg8
S'person'
p5727
sg10
(lp5728
I96
aI149
aI109
aI164
asg12
I0
sa(dp5729
g5
I0
sg6
S'Unspecified'
p5730
sg8
S'person'
p5731
sg10
(lp5732
I103
aI145
aI114
aI156
asg12
I0
sa(dp5733
g5
I0
sg6
S'Unspecified'
p5734
sg8
S'person'
p5735
sg10
(lp5736
I75
aI127
aI83
aI135
asg12
I0
sa(dp5737
g5
I0
sg6
S'Unspecified'
p5738
sg8
S'person'
p5739
sg10
(lp5740
I80
aI145
aI92
aI158
asg12
I0
sa(dp5741
g5
I0
sg6
S'Unspecified'
p5742
sg8
S'person'
p5743
sg10
(lp5744
I88
aI165
aI107
aI184
asg12
I0
sa(dp5745
g5
I0
sg6
S'Unspecified'
p5746
sg8
S'person'
p5747
sg10
(lp5748
I66
aI160
aI83
aI178
asg12
I0
sa(dp5749
g5
I0
sg6
S'Unspecified'
p5750
sg8
S'person'
p5751
sg10
(lp5752
I64
aI145
aI74
aI158
asg12
I0
sa(dp5753
g5
I0
sg6
S'Unspecified'
p5754
sg8
S'person'
p5755
sg10
(lp5756
I55
aI143
aI66
aI156
asg12
I0
sa(dp5757
g5
I0
sg6
S'Unspecified'
p5758
sg8
S'person'
p5759
sg10
(lp5760
I43
aI154
aI59
aI172
asg12
I0
sa(dp5761
g5
I0
sg6
S'Unspecified'
p5762
sg8
S'person'
p5763
sg10
(lp5764
I14
aI158
aI34
aI182
asg12
I0
sa(dp5765
g5
I0
sg6
S'Unspecified'
p5766
sg8
S'person'
p5767
sg10
(lp5768
I30
aI144
aI42
aI158
asg12
I0
sa(dp5769
g5
I0
sg6
S'Unspecified'
p5770
sg8
S'person'
p5771
sg10
(lp5772
I30
aI119
aI39
aI130
asg12
I0
sa(dp5773
g5
I0
sg6
S'Unspecified'
p5774
sg8
S'person'
p5775
sg10
(lp5776
I43
aI115
aI51
aI130
asg12
I0
sa(dp5777
g5
I0
sg6
S'Unspecified'
p5778
sg8
S'person'
p5779
sg10
(lp5780
I5
aI138
aI22
aI157
asg12
I0
sa(dp5781
g5
I0
sg6
S'Unspecified'
p5782
sg8
S'person'
p5783
sg10
(lp5784
I1
aI121
aI10
aI132
asg12
I1
sasS'PartA_01585'
p5785
(lp5786
(dp5787
g5
I0
sg6
S'Unspecified'
p5788
sg8
S'person'
p5789
sg10
(lp5790
I59
aI135
aI80
aI159
asg12
I0
sa(dp5791
g5
I0
sg6
S'Unspecified'
p5792
sg8
S'person'
p5793
sg10
(lp5794
I272
aI102
aI288
aI126
asg12
I0
sa(dp5795
g5
I0
sg6
S'Unspecified'
p5796
sg8
S'person'
p5797
sg10
(lp5798
I288
aI81
aI306
aI100
asg12
I0
sa(dp5799
g5
I0
sg6
S'Unspecified'
p5800
sg8
S'person'
p5801
sg10
(lp5802
I305
aI91
aI320
aI107
asg12
I0
sa(dp5803
g5
I0
sg6
S'Unspecified'
p5804
sg8
S'person'
p5805
sg10
(lp5806
I360
aI89
aI376
aI107
asg12
I0
sa(dp5807
g5
I0
sg6
S'Unspecified'
p5808
sg8
S'person'
p5809
sg10
(lp5810
I366
aI76
aI379
aI95
asg12
I0
sa(dp5811
g5
I0
sg6
S'Unspecified'
p5812
sg8
S'person'
p5813
sg10
(lp5814
I391
aI90
aI407
aI110
asg12
I0
sa(dp5815
g5
I0
sg6
S'Unspecified'
p5816
sg8
S'person'
p5817
sg10
(lp5818
I385
aI67
aI399
aI83
asg12
I0
sa(dp5819
g5
I0
sg6
S'Unspecified'
p5820
sg8
S'person'
p5821
sg10
(lp5822
I413
aI81
aI428
aI100
asg12
I0
sa(dp5823
g5
I0
sg6
S'Unspecified'
p5824
sg8
S'person'
p5825
sg10
(lp5826
I417
aI98
aI437
aI122
asg12
I0
sa(dp5827
g5
I0
sg6
S'Unspecified'
p5828
sg8
S'person'
p5829
sg10
(lp5830
I407
aI67
aI418
aI81
asg12
I0
sa(dp5831
g5
I0
sg6
S'Unspecified'
p5832
sg8
S'person'
p5833
sg10
(lp5834
I410
aI55
aI423
aI72
asg12
I0
sa(dp5835
g5
I0
sg6
S'Unspecified'
p5836
sg8
S'person'
p5837
sg10
(lp5838
I424
aI70
aI437
aI85
asg12
I0
sa(dp5839
g5
I0
sg6
S'Unspecified'
p5840
sg8
S'person'
p5841
sg10
(lp5842
I446
aI69
aI460
aI89
asg12
I0
sa(dp5843
g5
I0
sg6
S'Unspecified'
p5844
sg8
S'person'
p5845
sg10
(lp5846
I438
aI63
aI451
aI76
asg12
I0
sa(dp5847
g5
I0
sg6
S'Unspecified'
p5848
sg8
S'person'
p5849
sg10
(lp5850
I448
aI49
aI461
aI62
asg12
I0
sa(dp5851
g5
I0
sg6
S'Unspecified'
p5852
sg8
S'person'
p5853
sg10
(lp5854
I459
aI56
aI472
aI69
asg12
I0
sa(dp5855
g5
I0
sg6
S'Unspecified'
p5856
sg8
S'person'
p5857
sg10
(lp5858
I467
aI65
aI479
aI80
asg12
I0
sa(dp5859
g5
I0
sg6
S'Unspecified'
p5860
sg8
S'person'
p5861
sg10
(lp5862
I477
aI73
aI489
aI90
asg12
I0
sa(dp5863
g5
I0
sg6
S'Unspecified'
p5864
sg8
S'person'
p5865
sg10
(lp5866
I477
aI84
aI494
aI100
asg12
I0
sa(dp5867
g5
I0
sg6
S'Unspecified'
p5868
sg8
S'person'
p5869
sg10
(lp5870
I482
aI52
aI492
aI64
asg12
I0
sa(dp5871
g5
I0
sg6
S'Unspecified'
p5872
sg8
S'person'
p5873
sg10
(lp5874
I488
aI63
aI500
aI78
asg12
I0
sa(dp5875
g5
I0
sg6
S'Unspecified'
p5876
sg8
S'person'
p5877
sg10
(lp5878
I508
aI70
aI524
aI89
asg12
I0
sa(dp5879
g5
I0
sg6
S'Unspecified'
p5880
sg8
S'person'
p5881
sg10
(lp5882
I523
aI61
aI534
aI75
asg12
I0
sa(dp5883
g5
I0
sg6
S'Unspecified'
p5884
sg8
S'person'
p5885
sg10
(lp5886
I516
aI47
aI528
aI61
asg12
I0
sa(dp5887
g5
I0
sg6
S'Unspecified'
p5888
sg8
S'person'
p5889
sg10
(lp5890
I528
aI52
aI539
aI65
asg12
I0
sa(dp5891
g5
I0
sg6
S'Unspecified'
p5892
sg8
S'person'
p5893
sg10
(lp5894
I531
aI43
aI541
aI57
asg12
I0
sa(dp5895
g5
I0
sg6
S'Unspecified'
p5896
sg8
S'person'
p5897
sg10
(lp5898
I549
aI63
aI561
aI78
asg12
I0
sa(dp5899
g5
I0
sg6
S'Unspecified'
p5900
sg8
S'person'
p5901
sg10
(lp5902
I549
aI50
aI563
aI63
asg12
I0
sa(dp5903
g5
I0
sg6
S'Unspecified'
p5904
sg8
S'person'
p5905
sg10
(lp5906
I562
aI46
aI573
aI60
asg12
I0
sa(dp5907
g5
I0
sg6
S'Unspecified'
p5908
sg8
S'person'
p5909
sg10
(lp5910
I567
aI63
aI577
aI76
asg12
I0
sa(dp5911
g5
I0
sg6
S'Unspecified'
p5912
sg8
S'person'
p5913
sg10
(lp5914
I573
aI59
aI584
aI70
asg12
I0
sa(dp5915
g5
I0
sg6
S'Unspecified'
p5916
sg8
S'person'
p5917
sg10
(lp5918
I581
aI50
aI591
aI61
asg12
I0
sa(dp5919
g5
I0
sg6
S'Unspecified'
p5920
sg8
S'person'
p5921
sg10
(lp5922
I600
aI53
aI612
aI66
asg12
I0
sa(dp5923
g5
I0
sg6
S'Unspecified'
p5924
sg8
S'person'
p5925
sg10
(lp5926
I497
aI110
aI519
aI136
asg12
I0
sa(dp5927
g5
I0
sg6
S'Unspecified'
p5928
sg8
S'person'
p5929
sg10
(lp5930
I439
aI127
aI463
aI156
asg12
I0
sa(dp5931
g5
I0
sg6
S'Unspecified'
p5932
sg8
S'person'
p5933
sg10
(lp5934
I507
aI133
aI533
aI166
asg12
I0
sa(dp5935
g5
I0
sg6
S'Unspecified'
p5936
sg8
S'person'
p5937
sg10
(lp5938
I502
aI128
aI521
aI152
asg12
I0
sa(dp5939
g5
I0
sg6
S'Unspecified'
p5940
sg8
S'person'
p5941
sg10
(lp5942
I544
aI112
aI565
aI139
asg12
I0
sa(dp5943
g5
I0
sg6
S'Unspecified'
p5944
sg8
S'person'
p5945
sg10
(lp5946
I540
aI89
aI561
aI111
asg12
I0
sa(dp5947
g5
I0
sg6
S'Unspecified'
p5948
sg8
S'person'
p5949
sg10
(lp5950
I584
aI91
aI602
aI117
asg12
I0
sa(dp5951
g5
I0
sg6
S'Unspecified'
p5952
sg8
S'person'
p5953
sg10
(lp5954
I568
aI144
aI598
aI174
asg12
I0
sa(dp5955
g5
I0
sg6
S'Unspecified'
p5956
sg8
S'person'
p5957
sg10
(lp5958
I567
aI128
aI590
aI150
asg12
I0
sa(dp5959
g5
I0
sg6
S'Unspecified'
p5960
sg8
S'person'
p5961
sg10
(lp5962
I627
aI100
aI646
aI124
asg12
I0
sa(dp5963
g5
I0
sg6
S'Unspecified'
p5964
sg8
S'person'
p5965
sg10
(lp5966
I610
aI85
aI629
aI111
asg12
I0
sa(dp5967
g5
I0
sg6
S'Unspecified'
p5968
sg8
S'person'
p5969
sg10
(lp5970
I585
aI75
aI601
aI98
asg12
I0
sa(dp5971
g5
I0
sg6
S'Unspecified'
p5972
sg8
S'person'
p5973
sg10
(lp5974
I618
aI70
aI632
aI88
asg12
I0
sa(dp5975
g5
I0
sg6
S'Unspecified'
p5976
sg8
S'person'
p5977
sg10
(lp5978
I652
aI52
aI668
aI72
asg12
I0
sa(dp5979
g5
I0
sg6
S'Unspecified'
p5980
sg8
S'person'
p5981
sg10
(lp5982
I641
aI75
aI657
aI96
asg12
I0
sa(dp5983
g5
I0
sg6
S'Unspecified'
p5984
sg8
S'person'
p5985
sg10
(lp5986
I666
aI64
aI680
aI82
asg12
I0
sa(dp5987
g5
I0
sg6
S'Unspecified'
p5988
sg8
S'person'
p5989
sg10
(lp5990
I671
aI53
aI683
aI67
asg12
I0
sa(dp5991
g5
I0
sg6
S'Unspecified'
p5992
sg8
S'person'
p5993
sg10
(lp5994
I680
aI60
aI694
aI78
asg12
I0
sa(dp5995
g5
I0
sg6
S'Unspecified'
p5996
sg8
S'person'
p5997
sg10
(lp5998
I675
aI81
aI690
aI99
asg12
I0
sa(dp5999
g5
I0
sg6
S'Unspecified'
p6000
sg8
S'person'
p6001
sg10
(lp6002
I685
aI91
aI703
aI115
asg12
I0
sa(dp6003
g5
I0
sg6
S'Unspecified'
p6004
sg8
S'person'
p6005
sg10
(lp6006
I702
aI71
aI714
aI88
asg12
I0
sa(dp6007
g5
I0
sg6
S'Unspecified'
p6008
sg8
S'person'
p6009
sg10
(lp6010
I709
aI85
aI725
aI105
asg12
I0
sa(dp6011
g5
I0
sg6
S'Unspecified'
p6012
sg8
S'person'
p6013
sg10
(lp6014
I721
aI80
aI735
aI97
asg12
I0
sa(dp6015
g5
I0
sg6
S'Unspecified'
p6016
sg8
S'person'
p6017
sg10
(lp6018
I735
aI69
aI748
aI85
asg12
I0
sa(dp6019
g5
I0
sg6
S'Unspecified'
p6020
sg8
S'person'
p6021
sg10
(lp6022
I738
aI82
aI753
aI98
asg12
I0
sa(dp6023
g5
I0
sg6
S'Unspecified'
p6024
sg8
S'person'
p6025
sg10
(lp6026
I735
aI95
aI751
aI115
asg12
I0
sa(dp6027
g5
I0
sg6
S'Unspecified'
p6028
sg8
S'person'
p6029
sg10
(lp6030
I694
aI124
aI715
aI153
asg12
I0
sa(dp6031
g5
I0
sg6
S'Unspecified'
p6032
sg8
S'person'
p6033
sg10
(lp6034
I702
aI115
aI724
aI138
asg12
I0
sa(dp6035
g5
I0
sg6
S'Unspecified'
p6036
sg8
S'person'
p6037
sg10
(lp6038
I717
aI135
aI742
aI164
asg12
I0
sa(dp6039
g5
I0
sg6
S'Unspecified'
p6040
sg8
S'person'
p6041
sg10
(lp6042
I702
aI161
aI736
aI199
asg12
I0
sa(dp6043
g5
I0
sg6
S'Unspecified'
p6044
sg8
S'person'
p6045
sg10
(lp6046
I584
aI163
aI620
aI202
asg12
I0
sa(dp6047
g5
I0
sg6
S'Unspecified'
p6048
sg8
S'person'
p6049
sg10
(lp6050
I774
aI188
aI809
aI233
asg12
I0
sa(dp6051
g5
I0
sg6
S'Unspecified'
p6052
sg8
S'person'
p6053
sg10
(lp6054
I791
aI145
aI815
aI180
asg12
I0
sa(dp6055
g5
I0
sg6
S'Unspecified'
p6056
sg8
S'person'
p6057
sg10
(lp6058
I758
aI113
aI780
aI137
asg12
I0
sa(dp6059
g5
I0
sg6
S'Unspecified'
p6060
sg8
S'person'
p6061
sg10
(lp6062
I770
aI97
aI788
aI120
asg12
I0
sa(dp6063
g5
I0
sg6
S'Unspecified'
p6064
sg8
S'person'
p6065
sg10
(lp6066
I756
aI80
aI772
aI101
asg12
I0
sa(dp6067
g5
I0
sg6
S'Unspecified'
p6068
sg8
S'person'
p6069
sg10
(lp6070
I764
aI71
aI776
aI86
asg12
I0
sa(dp6071
g5
I0
sg6
S'Unspecified'
p6072
sg8
S'person'
p6073
sg10
(lp6074
I770
aI66
aI782
aI81
asg12
I0
sa(dp6075
g5
I0
sg6
S'Unspecified'
p6076
sg8
S'person'
p6077
sg10
(lp6078
I785
aI71
aI798
aI86
asg12
I0
sa(dp6079
g5
I0
sg6
S'Unspecified'
p6080
sg8
S'person'
p6081
sg10
(lp6082
I796
aI74
aI807
aI88
asg12
I0
sa(dp6083
g5
I0
sg6
S'Unspecified'
p6084
sg8
S'person'
p6085
sg10
(lp6086
I793
aI108
aI812
aI128
asg12
I0
sa(dp6087
g5
I0
sg6
S'Unspecified'
p6088
sg8
S'person'
p6089
sg10
(lp6090
I807
aI126
aI828
aI150
asg12
I0
sa(dp6091
g5
I0
sg6
S'Unspecified'
p6092
sg8
S'person'
p6093
sg10
(lp6094
I813
aI107
aI826
aI122
asg12
I0
sa(dp6095
g5
I0
sg6
S'Unspecified'
p6096
sg8
S'person'
p6097
sg10
(lp6098
I825
aI98
aI838
aI113
asg12
I0
sa(dp6099
g5
I0
sg6
S'Unspecified'
p6100
sg8
S'person'
p6101
sg10
(lp6102
I820
aI75
aI837
aI95
asg12
I0
sas.